(lp0
S'X,0.000'
p1
aS'X,0.000,<m3,m-3>'
p2
aS'X,0.000,<m3,m-3>'
p3
aS'X,0.000,<m3,m-3>'
p4
aS'X,0.000,<m3,m-3>'
p5
aS'A,0.500,<P1,d-5>'
p6
aS'S,2.000,<d3,M-3>'
p7
aS'X,0.000,<A8,AA4>'
p8
aS'X,0.000,<m3,m-3>'
p9
aS'X,0.000,<m3,m-3>'
p10
aS'X,0.000,<m3,m-3>'
p11
aS'X,0.000,<m3,m-3>'
p12
aS'X,2.500,<d1,P-5>'
p13
aS'X,0.000,<m2,P-4>'
p14
aS'X,0.000,<m3,m-3>'
p15
aS'X,0.000,<m3,m-3>'
p16
aS'X,0.000,<m3,m-3>'
p17
aS'X,0.000,<m3,m-3>'
p18
aS'A,0.500,<P1,d-5>'
p19
aS'S,2.000,<d3,M-3>'
p20
aS'C,0.000,<M14,A10>'
p21
aS'C,0.000,<m3,m-3>'
p22
aS'C,0.000,<m3,m-3>'
p23
aS'C,0.000,<m3,m-3>'
p24
aS'C,0.000,<m3,m-3>'
p25
aS'S,0.500,<d2,A-4>'
p26
aS'X,0.000,<d-4,dd-8>'
p27
aS'C,2.000,<m9,P5>'
p28
aS'X,0.000,<P-5,m-9>'
p29
aS'X,0.000,<m3,m-3>'
p30
aS'X,0.000,<m3,m-3>'
p31
aS'C,0.000,<m3,m-3>'
p32
aS'X,0.500,<d1,P-5>'
p33
aS'S,0.000,<M-2,m-6>'
p34
aS'S,0.000,<d4,M-2>'
p35
aS'X,0.000,<M-16,m-20>'
p36
aS'S,0.500,<d8,P4>'
p37
aS'X,0.000,<M9,A5>'
p38
aS'C,0.500,<d1,P-5>'
p39
aS'X,0.250,<P-4,d-8>'
p40
aS'X,0.250,<M2,d-4>'
p41
aS'S,1.000,<d12,P8>'
p42
aS'X,0.000,<A-12,M-16>'
p43
aS'X,1.000,<m7,M3>'
p44
aS'C,0.000,<P8,A4>'
p45
aS'A,0.000,<d4,M-2>'
p46
aS'S,0.000,<M3,d-3>'
p47
aS'S,0.000,<m10,M6>'
p48
aS'S,0.000,<A-4,P-8>'
p49
aS'S,0.000,<m9,P5>'
p50
aS'X,0.000,<m-6,d-10>'
p51
aS'S,1.500,<d3,M-3>'
p52
aS'S,0.000,<P4,m-2>'
p53
aS'S,0.250,<M-6,m-10>'
p54
aS'X,0.250,<M2,d-4>'
p55
aS'A,1.000,<d12,P8>'
p56
aS'X,0.000,<M-3,m-7>'
p57
aS'S,0.000,<d4,M-2>'
p58
aS'A,0.000,<M3,d-3>'
p59
aS'A,0.000,<m10,M6>'
p60
aS'X,0.000,<A-4,P-8>'
p61
aS'S,0.000,<m9,P5>'
p62
aS'X,0.000,<m-6,d-10>'
p63
aS'X,0.000,<A-9,M-13>'
p64
aS'S,0.500,<d8,P4>'
p65
aS'X,0.000,<M9,A5>'
p66
aS'C,0.500,<d1,P-5>'
p67
aS'X,0.250,<P-4,d-8>'
p68
aS'X,0.250,<M2,d-4>'
p69
aS'S,0.000,<d12,P8>'
p70
aS'X,0.000,<A-12,M-16>'
p71
aS'X,0.250,<m7,M3>'
p72
aS'X,0.250,<m10,M6>'
p73
aS'S,0.000,<P11,M7>'
p74
aS'C,0.000,<M-9,m-13>'
p75
aS'C,0.250,<m3,m-3>'
p76
aS'A,0.000,<d4,M-2>'
p77
aS'S,0.000,<M3,d-3>'
p78
aS'S,0.000,<d5,P1>'
p79
aS'X,0.250,<A-4,P-8>'
p80
aS'S,0.000,<m14,M10>'
p81
aS'X,0.000,<m-6,d-10>'
p82
aS'S,1.000,<d3,M-3>'
p83
aS'S,0.250,<m3,m-3>'
p84
aS'S,0.500,<m2,P-4>'
p85
aS'S,0.250,<P-4,d-8>'
p86
aS'S,0.000,<m10,M6>'
p87
aS'X,0.250,<m-7,d-11>'
p88
aS'A,1.000,<d12,P8>'
p89
aS'X,0.500,<M-3,m-7>'
p90
aS'A,0.000,<P11,M7>'
p91
aS'X,0.000,<d4,M-2>'
p92
aS'S,0.000,<P-5,m-9>'
p93
aS'A,0.250,<M-7,P-11>'
p94
aS'S,1.000,<P12,A8>'
p95
aS'A,0.000,<m7,M3>'
p96
aS'S,0.250,<A-10,M-14>'
p97
aS'X,0.000,<P15,A11>'
p98
aS'X,0.000,<P-5,m-9>'
p99
aS'A,0.250,<P-4,d-8>'
p100
aS'S,0.000,<m9,P5>'
p101
aS'X,0.000,<m9,P5>'
p102
aS'A,0.250,<M-9,m-13>'
p103
aS'C,0.250,<d1,P-5>'
p104
aS'X,0.250,<m6,M2>'
p105
aS'C,0.250,<P5,A1>'
p106
aS'A,0.250,<d5,P1>'
p107
aS'C,0.250,<M2,d-4>'
p108
aS'C,0.250,<m6,M2>'
p109
aS'C,0.250,<P5,A1>'
p110
aS'S,0.250,<d5,P1>'
p111
aS'C,0.250,<d3,M-3>'
p112
aS'C,0.250,<A5,AA1>'
p113
aS'C,0.250,<d6,m2>'
p114
aS'S,0.250,<d5,P1>'
p115
aS'C,0.250,<M2,d-4>'
p116
aS'C,0.250,<m6,M2>'
p117
aS'C,0.250,<P5,A1>'
p118
aS'S,0.250,<d5,P1>'
p119
aS'X,0.250,<M2,d-4>'
p120
aS'X,1.000,<M-27,m-31>'
p121
aS'X,1.000,<m3,m-3>'
p122
aS'X,1.000,<m3,m-3>'
p123
aS'S,0.250,<d20,m16>'
p124
aS'X,0.250,<M3,d-3>'
p125
aS'X,0.250,<d4,M-2>'
p126
aS'X,0.500,<m-17,d-21>'
p127
aS'A,0.250,<d22,P18>'
p128
aS'C,0.500,<P-4,d-8>'
p129
aS'C,1.500,<m7,M3>'
p130
aS'C,0.000,<M-3,m-7>'
p131
aS'C,0.000,<m3,m-3>'
p132
aS'C,0.000,<m3,m-3>'
p133
aS'C,0.000,<m3,m-3>'
p134
aS'C,0.000,<m3,m-3>'
p135
aS'A,0.000,<A-12,M-16>'
p136
aS'A,0.000,<P4,m-2>'
p137
aS'C,0.000,<P15,A11>'
p138
aS'X,0.000,<A-10,M-14>'
p139
aS'A,0.000,<P4,m-2>'
p140
aS'C,0.000,<M13,A9>'
p141
aS'C,1.500,<M-10,m-14>'
p142
aS'C,0.000,<m14,M10>'
p143
aS'C,0.000,<m3,m-3>'
p144
aS'C,0.000,<m3,m-3>'
p145
aS'C,0.000,<m3,m-3>'
p146
aS'A,0.500,<m7,M3>'
p147
aS'A,0.000,<A-2,M-6>'
p148
aS'C,0.000,<d4,M-2>'
p149
aS'A,0.000,<M3,d-3>'
p150
aS'C,0.000,<P4,m-2>'
p151
aS'C,0.500,<M-2,m-6>'
p152
aS'C,1.500,<d6,m2>'
p153
aS'C,0.000,<m-2,d-6>'
p154
aS'C,0.000,<m3,m-3>'
p155
aS'C,0.000,<m3,m-3>'
p156
aS'C,0.000,<m3,m-3>'
p157
aS'C,0.000,<m3,m-3>'
p158
aS'A,0.000,<M-2,m-6>'
p159
aS'X,0.000,<d4,M-2>'
p160
aS'C,0.000,<P5,A1>'
p161
aS'S,0.000,<d2,A-4>'
p162
aS'S,0.000,<P4,m-2>'
p163
aS'X,0.000,<M3,d-3>'
p164
aS'C,1.500,<d2,A-4>'
p165
aS'X,0.000,<A4,d-2>'
p166
aS'X,0.000,<m3,m-3>'
p167
aS'X,0.000,<m3,m-3>'
p168
aS'X,0.000,<m3,m-3>'
p169
aS'X,0.500,<m7,M3>'
p170
aS'C,0.000,<d2,A-4>'
p171
aS'A,0.000,<M3,d-3>'
p172
aS'X,0.000,<d4,M-2>'
p173
aS'A,0.000,<P4,m-2>'
p174
aS'C,0.500,<P-4,d-8>'
p175
aS'C,0.000,<m3,m-3>'
p176
aS'C,0.000,<m3,m-3>'
p177
aS'C,0.000,<m3,m-3>'
p178
aS'C,0.000,<m3,m-3>'
p179
aS'C,0.000,<m3,m-3>'
p180
aS'C,0.000,<m3,m-3>'
p181
aS'C,0.000,<m3,m-3>'
p182
aS'C,0.000,<m3,m-3>'
p183
aS'C,0.000,<m3,m-3>'
p184
aS'C,0.000,<m3,m-3>'
p185
aS'C,0.000,<m3,m-3>'
p186
aS'A,0.500,<m7,M3>'
p187
aS'C,0.500,<M-3,m-7>'
p188
aS'C,0.000,<m3,m-3>'
p189
aS'X,0.000,<m3,m-3>'
p190
aS'X,0.000,<m3,m-3>'
p191
aS'X,0.000,<m3,m-3>'
p192
aS'C,0.000,<m3,m-3>'
p193
aS'C,0.000,<m3,m-3>'
p194
aS'X,0.000,<m3,m-3>'
p195
aS'X,0.000,<m3,m-3>'
p196
aS'X,0.000,<m3,m-3>'
p197
aS'C,0.000,<m3,m-3>'
p198
aS'C,0.000,<m3,m-3>'
p199
aS'X,0.500,<m7,M3>'
p200
aS'C,0.500,<M-17,m-21>'
p201
aS'X,2.000,<M-3,m-7>'
p202
aS'X,0.500,<P11,M7>'
p203
aS'X,0.333,<m10,M6>'
p204
aS'S,0.000,<m2,P-4>'
p205
aS'X,0.000,<P4,m-2>'
p206
aS'A,0.000,<dd5,d1>'
p207
aS'C,0.000,<M3,d-3>'
p208
aS'X,1.000,<A-9,M-13>'
p209
aS'X,0.750,<m10,M6>'
p210
aS'C,0.000,<M7,A3>'
p211
aS'C,0.000,<m3,m-3>'
p212
aS'X,0.500,<m2,P-4>'
p213
aS'C,3.000,<d3,M-3>'
p214
aS'A,0.000,<A4,d-2>'
p215
aS'C,0.000,<A-3,M-7>'
p216
aS'A,0.500,<M6,A2>'
p217
aS'X,2.000,<d3,M-3>'
p218
aS'X,1.000,<P1,d-5>'
p219
aS'C,0.000,<M-3,m-7>'
p220
aS'S,0.000,<P-5,m-9>'
p221
aS'C,1.000,<P4,m-2>'
p222
aS'C,0.000,<d8,P4>'
p223
aS'C,0.000,<P-5,m-9>'
p224
aS'C,1.000,<P4,m-2>'
p225
aS'C,0.000,<d8,P4>'
p226
aS'C,0.000,<P-5,m-9>'
p227
aS'C,0.000,<P4,m-2>'
p228
aS'S,0.500,<m9,P5>'
p229
aS'C,0.000,<m2,P-4>'
p230
aS'C,0.000,<M-6,m-10>'
p231
aS'C,0.000,<P4,m-2>'
p232
aS'S,1.000,<d4,M-2>'
p233
aS'C,0.000,<P-5,m-9>'
p234
aS'S,0.000,<P4,m-2>'
p235
aS'A,3.500,<P29,A25>'
p236
aS'S,0.500,<A-23,M-27>'
p237
aS'C,0.000,<M2,d-4>'
p238
aS'C,0.500,<d4,M-2>'
p239
aS'A,0.000,<M27,A23>'
p240
aS'C,0.000,<m2,P-4>'
p241
aS'S,0.000,<m2,P-4>'
p242
aS'C,0.000,<m2,P-4>'
p243
aS'X,4.000,<A1,dd-5>'
p244
aS'S,0.000,<A-10,M-14>'
p245
aS'S,0.250,<M-6,m-10>'
p246
aS'C,0.250,<P4,m-2>'
p247
aS'S,4.500,<d4,M-2>'
p248
aS'X,1.500,<M20,A16>'
p249
aS'C,0.250,<A-15,P-19>'
p250
aS'X,0.250,<P4,m-2>'
p251
aS'X,0.000,<M3,d-3>'
p252
aS'X,0.000,<d18,m14>'
p253
aS'X,0.000,<M-13,m-17>'
p254
aS'S,0.000,<d18,m14>'
p255
aS'S,0.000,<P4,m-2>'
p256
aS'X,0.000,<P4,m-2>'
p257
aS'C,0.000,<A-25,P-29>'
p258
aS'X,0.000,<P4,m-2>'
p259
aS'A,3.500,<P29,A25>'
p260
aS'S,0.500,<A-23,M-27>'
p261
aS'X,0.000,<M2,d-4>'
p262
aS'C,0.500,<d4,M-2>'
p263
aS'A,0.000,<M27,A23>'
p264
aS'C,0.000,<m2,P-4>'
p265
aS'S,0.000,<m2,P-4>'
p266
aS'C,0.000,<m2,P-4>'
p267
aS'X,4.000,<A1,dd-5>'
p268
aS'S,0.000,<A-10,M-14>'
p269
aS'S,0.250,<M-6,m-10>'
p270
aS'C,0.250,<P4,m-2>'
p271
aS'S,4.500,<d4,M-2>'
p272
aS'S,2.000,<M20,A16>'
p273
aS'C,0.500,<A-15,P-19>'
p274
aS'C,0.250,<M-6,m-10>'
p275
aS'S,0.250,<P4,m-2>'
p276
aS'X,0.000,<M3,d-3>'
p277
aS'S,0.000,<d4,M-2>'
p278
aS'C,0.000,<d22,P18>'
p279
aS'S,0.000,<P4,m-2>'
p280
aS'C,0.500,<d5,P1>'
p281
aS'S,0.000,<M2,d-4>'
p282
aS'C,0.000,<A-19,M-23>'
p283
aS'C,0.000,<m24,M20>'
p284
aS'S,0.000,<M-16,m-20>'
p285
aS'C,0.000,<m20,M16>'
p286
aS'C,0.000,<m3,m-3>'
p287
aS'S,0.000,<M-23,m-27>'
p288
aS'C,0.000,<m27,M23>'
p289
aS'C,0.000,<P5,A1>'
p290
aS'S,0.000,<A-18,P-22>'
p291
aS'X,2.000,<A18,A14>'
p292
aS'C,0.000,<AA-18,A-22>'
p293
aS'S,0.000,<m7,M3>'
p294
aS'S,0.000,<M-6,m-10>'
p295
aS'C,0.000,<m10,M6>'
p296
aS'X,0.500,<P19,A15>'
p297
aS'C,0.000,<A-18,P-22>'
p298
aS'X,0.000,<P22,A18>'
p299
aS'S,0.000,<A-15,P-19>'
p300
aS'X,0.000,<P19,A15>'
p301
aS'X,0.000,<m3,m-3>'
p302
aS'S,0.000,<A-22,P-26>'
p303
aS'X,0.000,<P26,A22>'
p304
aS'C,0.000,<d5,P1>'
p305
aS'S,0.000,<M-17,m-21>'
p306
aS'C,2.000,<m16,P12>'
p307
aS'C,0.000,<P-15,d-19>'
p308
aS'S,0.000,<m6,M2>'
p309
aS'A,0.000,<M-6,m-10>'
p310
aS'A,0.000,<m10,M6>'
p311
aS'S,0.000,<m17,M13>'
p312
aS'S,0.000,<P4,m-2>'
p313
aS'C,0.500,<d5,P1>'
p314
aS'S,0.000,<M2,d-4>'
p315
aS'C,0.000,<A-19,M-23>'
p316
aS'C,0.000,<m24,M20>'
p317
aS'S,0.000,<M-16,m-20>'
p318
aS'C,0.000,<m20,M16>'
p319
aS'C,0.000,<m3,m-3>'
p320
aS'S,0.000,<M-23,m-27>'
p321
aS'C,0.000,<m27,M23>'
p322
aS'C,0.000,<P5,A1>'
p323
aS'S,0.000,<A-18,P-22>'
p324
aS'X,2.000,<A18,A14>'
p325
aS'C,0.000,<AA-18,A-22>'
p326
aS'S,0.000,<m7,M3>'
p327
aS'S,0.000,<M-6,m-10>'
p328
aS'C,0.000,<m10,M6>'
p329
aS'S,0.250,<m17,M13>'
p330
aS'C,0.000,<M-16,m-20>'
p331
aS'X,0.250,<m21,M17>'
p332
aS'S,0.250,<m2,P-4>'
p333
aS'S,0.000,<M-13,m-17>'
p334
aS'X,0.250,<P18,M14>'
p335
aS'X,0.000,<M3,d-3>'
p336
aS'S,0.000,<A-21,A-25>'
p337
aS'X,0.000,<P26,A22>'
p338
aS'S,0.000,<A-15,P-19>'
p339
aS'S,2.000,<m20,M16>'
p340
aS'S,0.000,<M-20,m-24>'
p341
aS'C,0.000,<m7,M3>'
p342
aS'A,0.000,<M-6,m-10>'
p343
aS'A,0.000,<m10,M6>'
p344
aS'X,0.250,<m10,M6>'
p345
aS'X,0.000,<M-10,m-14>'
p346
aS'S,0.250,<P15,A11>'
p347
aS'X,0.250,<m2,P-4>'
p348
aS'X,0.000,<M-6,m-10>'
p349
aS'S,0.250,<P11,M7>'
p350
aS'X,0.000,<M3,d-3>'
p351
aS'X,0.000,<A-14,A-18>'
p352
aS'S,0.000,<P19,A15>'
p353
aS'X,0.000,<A-8,P-12>'
p354
aS'X,2.000,<m13,M9>'
p355
aS'X,0.250,<d-8,dd-12>'
p356
aS'X,0.000,<AA-4,A-8>'
p357
aS'X,0.250,<m10,M6>'
p358
aS'X,0.250,<A1,dd-5>'
p359
aS'X,0.000,<d2,A-4>'
p360
aS'X,0.250,<m6,M2>'
p361
aS'S,0.000,<M3,d-3>'
p362
aS'X,0.000,<A-9,M-13>'
p363
aS'X,0.000,<m14,M10>'
p364
aS'X,0.000,<M-3,m-7>'
p365
aS'X,0.250,<m10,M6>'
p366
aS'S,2.000,<m-2,d-6>'
p367
aS'X,0.000,<A-7,A-11>'
p368
aS'S,0.250,<P15,A11>'
p369
aS'X,0.250,<m2,P-4>'
p370
aS'X,0.000,<M-6,m-10>'
p371
aS'S,0.250,<P11,M7>'
p372
aS'X,0.000,<M3,d-3>'
p373
aS'X,0.000,<A-14,A-18>'
p374
aS'S,0.000,<P19,A15>'
p375
aS'X,0.000,<A-8,P-12>'
p376
aS'X,4.000,<m13,M9>'
p377
aS'X,0.500,<d-8,dd-12>'
p378
aS'X,0.000,<AA-4,A-8>'
p379
aS'X,0.500,<m10,M6>'
p380
aS'X,0.000,<M-2,m-6>'
p381
aS'X,0.500,<A4,d-2>'
p382
aS'X,0.000,<A-7,A-11>'
p383
aS'X,0.500,<m13,M9>'
p384
aS'X,0.000,<M-2,m-6>'
p385
aS'S,1.000,<M6,A2>'
p386
aS'X,0.000,<A-6,M-10>'
p387
aS'X,0.000,<m7,M3>'
p388
aS'X,1.000,<m7,M3>'
p389
aS'X,0.000,<M-10,m-14>'
p390
aS'X,0.000,<m10,M6>'
p391
aS'S,0.500,<M6,A2>'
p392
aS'A,0.250,<d6,m2>'
p393
aS'X,0.250,<P4,m-2>'
p394
aS'S,0.500,<m-3,d-7>'
p395
aS'X,0.250,<d6,m2>'
p396
aS'X,0.250,<P4,m-2>'
p397
aS'S,0.500,<m-3,d-7>'
p398
aS'S,0.000,<m7,M3>'
p399
aS'X,0.500,<A-7,A-11>'
p400
aS'C,0.000,<P12,A8>'
p401
aS'S,0.500,<P-5,m-9>'
p402
aS'S,0.250,<m10,M6>'
p403
aS'S,0.250,<P4,m-2>'
p404
aS'S,0.500,<M-7,P-11>'
p405
aS'S,0.250,<m10,M6>'
p406
aS'S,0.250,<P4,m-2>'
p407
aS'S,0.500,<M-7,P-11>'
p408
aS'A,0.000,<d12,P8>'
p409
aS'X,0.500,<A-11,P-15>'
p410
aS'C,0.000,<A15,AA11>'
p411
aS'S,0.500,<M-7,P-11>'
p412
aS'S,0.250,<d12,P8>'
p413
aS'S,0.250,<M-6,m-10>'
p414
aS'S,0.250,<P11,M7>'
p415
aS'S,0.250,<M-6,m-10>'
p416
aS'A,0.500,<M-2,m-6>'
p417
aS'X,0.250,<d12,P8>'
p418
aS'X,0.250,<M-6,m-10>'
p419
aS'X,0.250,<P11,M7>'
p420
aS'X,0.250,<M-6,m-10>'
p421
aS'A,0.500,<M-2,m-6>'
p422
aS'S,0.000,<d14,m10>'
p423
aS'S,0.000,<M-6,m-10>'
p424
aS'S,0.500,<M-7,P-11>'
p425
aS'C,0.000,<A18,A14>'
p426
aS'C,0.000,<M-6,m-10>'
p427
aS'X,0.500,<A-4,P-8>'
p428
aS'X,0.250,<M16,A12>'
p429
aS'X,0.250,<M-6,m-10>'
p430
aS'S,0.250,<dd12,d8>'
p431
aS'S,0.250,<M-6,m-10>'
p432
aS'X,0.500,<m-7,d-11>'
p433
aS'X,0.250,<M16,A12>'
p434
aS'X,0.250,<M-6,m-10>'
p435
aS'S,0.250,<dd12,d8>'
p436
aS'S,0.250,<M-6,m-10>'
p437
aS'X,0.500,<m-7,d-11>'
p438
aS'A,0.000,<P18,M14>'
p439
aS'A,0.000,<M-6,m-10>'
p440
aS'S,0.500,<A-10,M-14>'
p441
aS'C,0.000,<P22,A18>'
p442
aS'C,0.000,<M-6,m-10>'
p443
aS'C,0.000,<m-20,d-24>'
p444
aS'A,0.000,<m7,M3>'
p445
aS'C,0.000,<M-6,m-10>'
p446
aS'C,0.000,<m10,M6>'
p447
aS'C,0.000,<M-3,m-7>'
p448
aS'A,0.000,<m7,M3>'
p449
aS'C,0.000,<M-6,m-10>'
p450
aS'C,0.000,<m10,M6>'
p451
aS'C,0.000,<dd1,A-5>'
p452
aS'A,0.000,<A5,AA1>'
p453
aS'C,0.000,<M-6,m-10>'
p454
aS'A,0.000,<m10,M6>'
p455
aS'C,0.000,<dd1,A-5>'
p456
aS'A,0.000,<A5,AA1>'
p457
aS'C,0.000,<M-6,m-10>'
p458
aS'C,0.000,<m10,M6>'
p459
aS'C,0.000,<M-3,m-7>'
p460
aS'A,0.000,<m7,M3>'
p461
aS'C,0.000,<M-6,m-10>'
p462
aS'C,0.000,<m10,M6>'
p463
aS'C,0.000,<M-3,m-7>'
p464
aS'A,0.000,<m7,M3>'
p465
aS'C,0.000,<M-6,m-10>'
p466
aS'C,0.000,<m10,M6>'
p467
aS'C,0.250,<m3,m-3>'
p468
aS'S,0.250,<dd5,d1>'
p469
aS'X,0.250,<A1,dd-5>'
p470
aS'A,0.000,<dd26,d22>'
p471
aS'A,0.250,<M-20,m-24>'
p472
aS'C,0.500,<M3,d-3>'
p473
aS'C,0.500,<d4,M-2>'
p474
aS'C,0.000,<M21,A17>'
p475
aS'A,2.500,<M-17,m-21>'
p476
aS'C,0.500,<d20,m16>'
p477
aS'C,0.500,<m2,P-4>'
p478
aS'C,0.250,<P-15,d-19>'
p479
aS'C,0.500,<m20,M16>'
p480
aS'A,0.250,<m-17,d-21>'
p481
aS'S,0.000,<d3,M-3>'
p482
aS'C,1.000,<A15,AA11>'
p483
aS'A,0.000,<A-15,P-19>'
p484
aS'A,0.250,<m6,M2>'
p485
aS'X,0.250,<P4,m-2>'
p486
aS'X,0.250,<m2,P-4>'
p487
aS'C,0.000,<P25,M21>'
p488
aS'C,0.250,<M-20,m-24>'
p489
aS'C,0.000,<d4,M-2>'
p490
aS'C,0.000,<M3,d-3>'
p491
aS'C,0.000,<d22,P18>'
p492
aS'A,2.500,<M-17,m-21>'
p493
aS'A,0.500,<d19,P15>'
p494
aS'C,0.500,<M2,d-4>'
p495
aS'C,0.250,<P-15,d-19>'
p496
aS'C,0.500,<m20,M16>'
p497
aS'A,0.250,<A-16,M-20>'
p498
aS'X,0.000,<M2,d-4>'
p499
aS'C,1.000,<m16,P12>'
p500
aS'A,0.000,<A-15,P-19>'
p501
aS'X,1.000,<A4,d-2>'
p502
aS'C,0.250,<d9,d5>'
p503
aS'X,1.000,<d-5,d-9>'
p504
aS'X,0.250,<m10,M6>'
p505
aS'S,0.250,<d3,M-3>'
p506
aS'A,0.250,<M2,d-4>'
p507
aS'X,1.000,<A-5,M-9>'
p508
aS'C,0.250,<m9,P5>'
p509
aS'X,1.000,<P-5,m-9>'
p510
aS'X,0.250,<m10,M6>'
p511
aS'X,0.250,<M3,d-3>'
p512
aS'X,0.250,<d4,M-2>'
p513
aS'A,1.000,<P-8,d-12>'
p514
aS'C,0.250,<d13,m9>'
p515
aS'A,1.000,<m-9,d-13>'
p516
aS'X,0.250,<m14,M10>'
p517
aS'S,0.250,<d3,M-3>'
p518
aS'C,0.250,<m2,P-4>'
p519
aS'X,1.000,<M-9,m-13>'
p520
aS'C,0.250,<P12,A8>'
p521
aS'X,1.000,<A-8,P-12>'
p522
aS'C,0.250,<M13,A9>'
p523
aS'A,0.250,<d4,M-2>'
p524
aS'S,0.250,<M3,d-3>'
p525
aS'C,0.250,<d4,M-2>'
p526
aS'S,1.000,<P-12,m-16>'
p527
aS'S,0.250,<P18,M14>'
p528
aS'S,0.250,<m2,P-4>'
p529
aS'C,0.250,<m2,P-4>'
p530
aS'C,0.250,<M2,d-4>'
p531
aS'X,1.000,<AA-11,A-15>'
p532
aS'X,0.250,<m17,M13>'
p533
aS'X,0.250,<P4,m-2>'
p534
aS'S,0.250,<m-3,d-7>'
p535
aS'C,2.000,<d18,m14>'
p536
aS'C,0.250,<M-13,m-17>'
p537
aS'X,1.000,<P-12,m-16>'
p538
aS'C,0.250,<P18,M14>'
p539
aS'X,0.250,<m2,P-4>'
p540
aS'C,0.250,<m2,P-4>'
p541
aS'S,0.250,<M-3,m-7>'
p542
aS'S,1.000,<M-6,m-10>'
p543
aS'X,0.250,<M10,A6>'
p544
aS'S,0.250,<d4,M-2>'
p545
aS'C,0.250,<P4,m-2>'
p546
aS'S,0.000,<d15,P11>'
p547
aS'S,0.000,<P4,m-2>'
p548
aS'S,0.000,<P4,m-2>'
p549
aS'C,0.500,<d4,M-2>'
p550
aS'S,3.333,<M-16,m-20>'
p551
aS'C,0.000,<M-3,m-7>'
p552
aS'S,0.000,<m24,M20>'
p553
aS'S,0.000,<M-16,m-20>'
p554
aS'X,0.000,<m20,M16>'
p555
aS'X,0.000,<m3,m-3>'
p556
aS'C,0.000,<M-23,m-27>'
p557
aS'S,0.000,<m27,M23>'
p558
aS'A,0.000,<P5,A1>'
p559
aS'S,0.000,<A-18,P-22>'
p560
aS'X,2.000,<A18,A14>'
p561
aS'C,0.000,<AA-18,A-22>'
p562
aS'S,0.000,<m7,M3>'
p563
aS'S,0.000,<M-6,m-10>'
p564
aS'S,0.333,<P11,M7>'
p565
aS'C,0.000,<m2,P-4>'
p566
aS'X,0.333,<A4,d-2>'
p567
aS'S,0.500,<d18,m14>'
p568
aS'S,2.000,<M-13,m-17>'
p569
aS'S,0.000,<A-4,P-8>'
p570
aS'S,0.000,<P22,A18>'
p571
aS'S,0.000,<A-15,P-19>'
p572
aS'S,0.000,<P19,A15>'
p573
aS'S,0.000,<m3,m-3>'
p574
aS'C,0.000,<A-22,P-26>'
p575
aS'X,0.000,<P26,A22>'
p576
aS'C,0.000,<d5,P1>'
p577
aS'S,0.000,<M-17,m-21>'
p578
aS'S,2.000,<m16,P12>'
p579
aS'S,2.000,<M-13,m-17>'
p580
aS'S,0.000,<P1,d-5>'
p581
aS'S,0.000,<m6,M2>'
p582
aS'C,0.000,<M-6,m-10>'
p583
aS'S,0.000,<m10,M6>'
p584
aS'C,0.500,<m20,M16>'
p585
aS'S,3.000,<M-16,m-20>'
p586
aS'C,0.667,<M-3,m-7>'
p587
aS'S,0.000,<m24,M20>'
p588
aS'X,0.000,<m3,m-3>'
p589
aS'C,0.667,<M-23,m-27>'
p590
aS'X,0.000,<m27,M23>'
p591
aS'S,0.000,<m3,m-3>'
p592
aS'S,0.667,<M-20,m-24>'
p593
aS'A,0.000,<P26,A22>'
p594
aS'X,2.000,<m-3,d-7>'
p595
aS'S,0.667,<A-21,A-25>'
p596
aS'S,0.667,<m6,M2>'
p597
aS'X,0.333,<P8,A4>'
p598
aS'S,0.333,<P4,m-2>'
p599
aS'C,0.667,<A-8,P-12>'
p600
aS'S,0.000,<P25,M21>'
p601
aS'X,0.333,<A-11,P-15>'
p602
aS'X,0.000,<M14,A10>'
p603
aS'X,0.500,<A-8,P-12>'
p604
aS'X,0.000,<m3,m-3>'
p605
aS'X,0.000,<m3,m-3>'
p606
aS'X,0.000,<m3,m-3>'
p607
aS'X,0.000,<m3,m-3>'
p608
aS'X,0.000,<m3,m-3>'
p609
aS'X,0.000,<m3,m-3>'
p610
aS'X,0.000,<m3,m-3>'
p611
aS'X,0.000,<m3,m-3>'
p612
aS'X,0.000,<m3,m-3>'
p613
aS'X,0.000,<m3,m-3>'
p614
aS'X,0.000,<m3,m-3>'
p615
aS'S,0.500,<m7,M3>'
p616
aS'X,0.000,<d12,P8>'
p617
aS'X,0.500,<M-13,m-17>'
p618
aS'S,0.000,<P11,M7>'
p619
aS'X,0.000,<M-7,P-11>'
p620
aS'X,0.000,<m3,m-3>'
p621
aS'S,0.000,<P12,A8>'
p622
aS'X,0.000,<A-8,P-12>'
p623
aS'X,0.000,<m3,m-3>'
p624
aS'S,0.000,<P18,M14>'
p625
aS'X,0.000,<M-14,P-18>'
p626
aS'X,0.000,<m3,m-3>'
p627
aS'X,0.000,<m17,M13>'
p628
aS'X,0.000,<M-13,m-17>'
p629
aS'X,0.000,<m3,m-3>'
p630
aS'X,0.250,<m10,M6>'
p631
aS'X,0.000,<M-6,m-10>'
p632
aS'S,0.250,<P11,M7>'
p633
aS'X,0.000,<M-7,P-11>'
p634
aS'X,0.000,<d12,P8>'
p635
aS'X,0.000,<P-8,d-12>'
p636
aS'X,0.000,<m14,M10>'
p637
aS'X,0.000,<M-6,m-10>'
p638
aS'X,0.500,<m6,M2>'
p639
aS'X,0.500,<m3,m-3>'
p640
aS'X,0.500,<m3,m-3>'
p641
aS'C,0.500,<P-4,d-8>'
p642
aS'X,0.500,<d7,m3>'
p643
aS'X,0.500,<m3,m-3>'
p644
aS'X,0.500,<m3,m-3>'
p645
aS'C,0.500,<m-3,d-7>'
p646
aS'C,0.250,<m17,M13>'
p647
aS'X,0.500,<A-8,P-12>'
p648
aS'S,0.333,<P-5,m-9>'
p649
aS'X,0.333,<m-3,d-7>'
p650
aS'A,0.250,<dd22,d18>'
p651
aS'S,0.250,<M2,d-4>'
p652
aS'A,0.333,<A-12,M-16>'
p653
aS'S,0.333,<m-3,d-7>'
p654
aS'S,0.250,<P19,A15>'
p655
aS'X,0.500,<A-6,M-10>'
p656
aS'X,0.250,<m10,M6>'
p657
aS'S,0.250,<M2,d-4>'
p658
aS'C,0.333,<M-10,m-14>'
p659
aS'X,0.333,<A-2,M-6>'
p660
aS'X,0.250,<m17,M13>'
p661
aS'X,0.500,<P-5,m-9>'
p662
aS'A,0.333,<M-3,m-7>'
p663
aS'S,0.333,<m-3,d-7>'
p664
aS'S,0.250,<m16,P12>'
p665
aS'X,0.250,<M2,d-4>'
p666
aS'S,0.333,<M-7,P-11>'
p667
aS'X,0.333,<A-2,M-6>'
p668
aS'S,0.250,<m14,M10>'
p669
aS'C,0.500,<P-8,d-12>'
p670
aS'S,0.250,<P11,M7>'
p671
aS'A,0.250,<d3,M-3>'
p672
aS'S,0.333,<P-5,m-9>'
p673
aS'S,0.333,<m-3,d-7>'
p674
aS'A,0.000,<dd12,d8>'
p675
aS'X,0.500,<M-2,m-6>'
p676
aS'X,0.500,<m3,m-3>'
p677
aS'X,0.500,<A1,dd-5>'
p678
aS'S,0.500,<A-2,M-6>'
p679
aS'X,0.500,<d8,P4>'
p680
aS'C,0.500,<m-3,d-7>'
p681
aS'X,0.500,<P5,A1>'
p682
aS'S,0.500,<A-2,M-6>'
p683
aS'X,0.000,<M13,A9>'
p684
aS'C,0.000,<d4,M-2>'
p685
aS'S,0.500,<M-9,m-13>'
p686
aS'S,0.000,<m7,M3>'
p687
aS'C,0.500,<m2,P-4>'
p688
aS'S,1.000,<P5,A1>'
p689
aS'S,0.500,<A-5,M-9>'
p690
aS'C,0.500,<m7,M3>'
p691
aS'A,0.000,<M9,A5>'
p692
aS'C,0.000,<d4,M-2>'
p693
aS'S,0.500,<M-9,m-13>'
p694
aS'S,0.000,<m7,M3>'
p695
aS'C,0.500,<m2,P-4>'
p696
aS'S,1.000,<P5,A1>'
p697
aS'S,0.500,<A-5,M-9>'
p698
aS'C,0.500,<m7,M3>'
p699
aS'A,0.000,<M9,A5>'
p700
aS'C,0.000,<d4,M-2>'
p701
aS'S,0.500,<M-9,m-13>'
p702
aS'S,0.000,<m7,M3>'
p703
aS'C,0.500,<m2,P-4>'
p704
aS'S,0.000,<P5,A1>'
p705
aS'S,0.500,<A-5,M-9>'
p706
aS'S,0.000,<P15,A11>'
p707
aS'C,0.500,<M-7,P-11>'
p708
aS'C,0.000,<m10,M6>'
p709
aS'S,0.500,<M-9,m-13>'
p710
aS'C,0.250,<m6,M2>'
p711
aS'C,0.500,<m3,m-3>'
p712
aS'S,0.250,<P4,m-2>'
p713
aS'S,3.000,<P4,m-2>'
p714
aS'S,0.500,<A-5,M-9>'
p715
aS'C,0.500,<m7,M3>'
p716
aS'C,0.000,<P12,A8>'
p717
aS'C,0.000,<M-6,m-10>'
p718
aS'X,0.000,<dd12,d8>'
p719
aS'X,0.000,<M-6,m-10>'
p720
aS'S,0.000,<A8,AA4>'
p721
aS'S,0.000,<M-6,m-10>'
p722
aS'X,0.333,<AA-11,A-15>'
p723
aS'X,0.000,<m24,M20>'
p724
aS'X,0.000,<M-6,m-10>'
p725
aS'S,0.000,<A8,AA4>'
p726
aS'X,0.000,<dd5,d1>'
p727
aS'S,0.000,<d-8,dd-12>'
p728
aS'X,0.000,<dd5,d1>'
p729
aS'C,0.000,<A8,AA4>'
p730
aS'S,0.000,<dd5,d1>'
p731
aS'C,0.000,<d-8,dd-12>'
p732
aS'S,0.000,<dd5,d1>'
p733
aS'S,0.333,<P-12,m-16>'
p734
aS'C,0.000,<M21,A17>'
p735
aS'C,0.000,<M-6,m-10>'
p736
aS'S,0.333,<A-10,M-14>'
p737
aS'S,0.000,<m23,P19>'
p738
aS'S,0.000,<M-6,m-10>'
p739
aS'S,0.000,<A8,AA4>'
p740
aS'S,0.000,<M-6,m-10>'
p741
aS'X,0.333,<AA-11,A-15>'
p742
aS'X,0.000,<m24,M20>'
p743
aS'X,0.000,<M-6,m-10>'
p744
aS'S,0.000,<A8,AA4>'
p745
aS'X,0.000,<dd5,d1>'
p746
aS'S,0.000,<d-8,dd-12>'
p747
aS'X,0.000,<dd5,d1>'
p748
aS'X,0.000,<A8,AA4>'
p749
aS'S,0.000,<dd5,d1>'
p750
aS'X,0.000,<d-8,dd-12>'
p751
aS'S,0.000,<dd5,d1>'
p752
aS'X,0.333,<d-15,dd-19>'
p753
aS'X,0.000,<m24,M20>'
p754
aS'X,0.000,<M-6,m-10>'
p755
aS'X,0.667,<M-13,m-17>'
p756
aS'S,0.000,<dd26,d22>'
p757
aS'S,0.000,<M-6,m-10>'
p758
aS'X,0.000,<A8,AA4>'
p759
aS'X,0.000,<M-6,m-10>'
p760
aS'S,0.000,<dd12,d8>'
p761
aS'S,0.000,<M-6,m-10>'
p762
aS'X,0.000,<A8,AA4>'
p763
aS'S,0.000,<dd5,d1>'
p764
aS'X,0.000,<d-8,dd-12>'
p765
aS'S,0.000,<dd5,d1>'
p766
aS'S,0.000,<A8,AA4>'
p767
aS'X,0.000,<dd5,d1>'
p768
aS'S,0.000,<d-8,dd-12>'
p769
aS'X,0.000,<dd5,d1>'
p770
aS'X,0.667,<M-13,m-17>'
p771
aS'S,0.000,<A22,AA18>'
p772
aS'S,0.000,<M-6,m-10>'
p773
aS'X,0.000,<dd12,d8>'
p774
aS'X,0.000,<M-6,m-10>'
p775
aS'C,0.000,<A8,AA4>'
p776
aS'C,0.000,<M-6,m-10>'
p777
aS'X,0.667,<A-11,P-15>'
p778
aS'S,0.000,<d24,m20>'
p779
aS'S,0.000,<M-6,m-10>'
p780
aS'C,0.000,<A8,AA4>'
p781
aS'S,0.000,<dd5,d1>'
p782
aS'C,0.000,<d-8,dd-12>'
p783
aS'S,0.000,<dd5,d1>'
p784
aS'C,0.000,<A8,AA4>'
p785
aS'S,0.000,<dd5,d1>'
p786
aS'C,0.000,<d-8,dd-12>'
p787
aS'S,0.000,<dd5,d1>'
p788
aS'S,0.000,<A8,AA4>'
p789
aS'S,0.000,<M-6,m-10>'
p790
aS'X,0.667,<A-10,M-14>'
p791
aS'C,0.000,<m23,P19>'
p792
aS'C,0.000,<M-6,m-10>'
p793
aS'S,0.000,<A8,AA4>'
p794
aS'S,0.000,<M-6,m-10>'
p795
aS'C,0.000,<dd12,d8>'
p796
aS'C,0.000,<M-6,m-10>'
p797
aS'S,0.000,<A8,AA4>'
p798
aS'C,0.000,<dd5,d1>'
p799
aS'S,0.000,<d-8,dd-12>'
p800
aS'C,0.000,<dd5,d1>'
p801
aS'C,0.000,<A8,AA4>'
p802
aS'S,0.000,<dd5,d1>'
p803
aS'C,0.000,<d-8,dd-12>'
p804
aS'S,0.000,<dd5,d1>'
p805
aS'X,0.667,<m-13,d-17>'
p806
aS'C,0.000,<P22,A18>'
p807
aS'C,0.000,<M-6,m-10>'
p808
aS'S,0.000,<dd12,d8>'
p809
aS'S,0.000,<M-6,m-10>'
p810
aS'S,0.000,<A8,AA4>'
p811
aS'S,0.000,<M-6,m-10>'
p812
aS'X,0.667,<A-12,M-16>'
p813
aS'X,0.000,<d25,m21>'
p814
aS'X,0.000,<M-6,m-10>'
p815
aS'S,0.000,<A8,AA4>'
p816
aS'X,0.000,<dd5,d1>'
p817
aS'S,0.000,<d-8,dd-12>'
p818
aS'X,0.000,<dd5,d1>'
p819
aS'S,0.000,<A8,AA4>'
p820
aS'X,0.000,<dd5,d1>'
p821
aS'S,0.000,<d-8,dd-12>'
p822
aS'X,0.000,<dd5,d1>'
p823
aS'X,0.000,<A8,AA4>'
p824
aS'X,0.000,<M-6,m-10>'
p825
aS'X,0.333,<M-13,m-17>'
p826
aS'S,0.000,<dd26,d22>'
p827
aS'S,0.000,<M-6,m-10>'
p828
aS'X,0.000,<A8,AA4>'
p829
aS'X,0.000,<M-6,m-10>'
p830
aS'X,0.333,<M-14,P-18>'
p831
aS'S,0.000,<d27,m23>'
p832
aS'S,0.000,<M-6,m-10>'
p833
aS'X,0.000,<A8,AA4>'
p834
aS'S,0.000,<dd5,d1>'
p835
aS'X,0.000,<d-8,dd-12>'
p836
aS'S,0.000,<dd5,d1>'
p837
aS'X,0.000,<A8,AA4>'
p838
aS'C,0.000,<dd5,d1>'
p839
aS'X,0.000,<d-8,dd-12>'
p840
aS'C,0.000,<dd5,d1>'
p841
aS'S,0.333,<M-16,m-20>'
p842
aS'C,0.000,<A25,A21>'
p843
aS'C,0.000,<M-6,m-10>'
p844
aS'X,0.333,<M-16,m-20>'
p845
aS'S,0.000,<dd29,d25>'
p846
aS'S,0.000,<M-6,m-10>'
p847
aS'X,0.000,<A8,AA4>'
p848
aS'X,0.000,<M-6,m-10>'
p849
aS'S,0.333,<A-14,A-18>'
p850
aS'C,0.000,<m27,M23>'
p851
aS'C,0.000,<M-6,m-10>'
p852
aS'X,0.000,<A8,AA4>'
p853
aS'C,0.000,<dd5,d1>'
p854
aS'X,0.000,<d-8,dd-12>'
p855
aS'C,0.000,<dd5,d1>'
p856
aS'X,0.000,<A8,AA4>'
p857
aS'S,0.000,<dd5,d1>'
p858
aS'X,0.000,<d-8,dd-12>'
p859
aS'S,0.000,<dd5,d1>'
p860
aS'X,0.333,<m-16,d-20>'
p861
aS'C,0.500,<m14,M10>'
p862
aS'X,0.500,<M-16,m-20>'
p863
aS'X,0.333,<m10,M6>'
p864
aS'X,0.333,<dd5,d1>'
p865
aS'S,0.000,<A11,A7>'
p866
aS'X,0.000,<m3,m-3>'
p867
aS'S,0.333,<A-6,M-10>'
p868
aS'X,0.000,<M10,A6>'
p869
aS'C,0.500,<M-16,m-20>'
p870
aS'S,0.333,<d13,m9>'
p871
aS'S,0.000,<M10,A6>'
p872
aS'X,0.333,<A-7,A-11>'
p873
aS'A,0.500,<m14,M10>'
p874
aS'X,0.333,<d-12,d-16>'
p875
aS'X,0.500,<M-6,m-10>'
p876
aS'X,0.500,<m10,M6>'
p877
aS'S,0.000,<d15,P11>'
p878
aS'S,0.500,<M-10,m-14>'
p879
aS'S,0.000,<m14,M10>'
p880
aS'A,0.000,<m3,m-3>'
p881
aS'A,0.500,<P-18,d-22>'
p882
aS'S,0.500,<dd12,d8>'
p883
aS'A,0.000,<M13,A9>'
p884
aS'C,0.000,<P5,A1>'
p885
aS'S,0.500,<A-11,P-15>'
p886
aS'X,0.000,<d12,P8>'
p887
aS'C,0.500,<m-13,d-17>'
p888
aS'S,0.333,<d9,d5>'
p889
aS'X,0.333,<M3,d-3>'
p890
aS'X,0.250,<m14,M10>'
p891
aS'A,0.250,<m3,m-3>'
p892
aS'X,0.333,<M-9,m-13>'
p893
aS'A,0.250,<m13,M9>'
p894
aS'X,0.500,<M-16,m-20>'
p895
aS'X,0.333,<m10,M6>'
p896
aS'X,0.250,<m13,M9>'
p897
aS'X,0.333,<M-10,m-14>'
p898
aS'S,0.000,<d17,m13>'
p899
aS'S,0.333,<M-13,m-17>'
p900
aS'C,0.500,<d-5,d-9>'
p901
aS'S,0.500,<d9,d5>'
p902
aS'S,0.000,<M16,A12>'
p903
aS'S,0.500,<P-12,m-16>'
p904
aS'S,0.000,<m16,P12>'
p905
aS'A,0.000,<m3,m-3>'
p906
aS'X,0.500,<P-18,d-22>'
p907
aS'X,0.500,<d10,m6>'
p908
aS'A,0.000,<P15,A11>'
p909
aS'X,0.000,<P5,A1>'
p910
aS'X,0.500,<M-13,m-17>'
p911
aS'S,0.000,<d14,m10>'
p912
aS'X,0.333,<m-10,d-14>'
p913
aS'S,0.333,<dd5,d1>'
p914
aS'X,0.000,<A15,AA11>'
p915
aS'A,0.000,<m3,m-3>'
p916
aS'S,0.333,<A-10,M-14>'
p917
aS'A,0.000,<M14,A10>'
p918
aS'S,0.333,<A-10,M-14>'
p919
aS'X,0.000,<M14,A10>'
p920
aS'S,0.333,<AA-11,A-15>'
p921
aS'S,0.000,<P18,M14>'
p922
aS'X,0.333,<m-16,d-20>'
p923
aS'X,0.500,<m3,m-3>'
p924
aS'S,0.000,<d19,P15>'
p925
aS'S,0.500,<M-14,P-18>'
p926
aS'S,0.000,<P18,M14>'
p927
aS'S,0.000,<m3,m-3>'
p928
aS'X,0.500,<A-13,M-17>'
p929
aS'S,0.000,<M17,A13>'
p930
aS'C,0.000,<d6,m2>'
p931
aS'X,0.000,<A1,dd-5>'
p932
aS'X,0.250,<A-22,P-26>'
p933
aS'X,0.500,<P11,M7>'
p934
aS'X,0.000,<m17,M13>'
p935
aS'X,0.000,<m2,P-4>'
p936
aS'X,0.250,<P-19,m-23>'
p937
aS'X,0.250,<P4,m-2>'
p938
aS'X,0.333,<m7,M3>'
p939
aS'S,0.333,<dd5,d1>'
p940
aS'X,0.000,<A15,AA11>'
p941
aS'A,0.000,<m3,m-3>'
p942
aS'S,0.333,<A-10,M-14>'
p943
aS'A,0.000,<M14,A10>'
p944
aS'S,0.333,<A-10,M-14>'
p945
aS'X,0.000,<M14,A10>'
p946
aS'S,0.333,<AA-11,A-15>'
p947
aS'S,0.000,<P18,M14>'
p948
aS'X,0.333,<m-16,d-20>'
p949
aS'X,0.500,<m3,m-3>'
p950
aS'S,0.000,<d19,P15>'
p951
aS'S,0.500,<M-14,P-18>'
p952
aS'S,0.000,<P18,M14>'
p953
aS'S,0.000,<m3,m-3>'
p954
aS'X,0.500,<A-13,M-17>'
p955
aS'S,0.000,<M17,A13>'
p956
aS'C,0.000,<d6,m2>'
p957
aS'X,0.000,<A1,dd-5>'
p958
aS'X,0.250,<A-22,P-26>'
p959
aS'X,0.500,<P11,M7>'
p960
aS'X,0.000,<m17,M13>'
p961
aS'X,0.000,<m2,P-4>'
p962
aS'X,0.250,<P-19,m-23>'
p963
aS'X,0.250,<P4,m-2>'
p964
aS'S,0.333,<d9,d5>'
p965
aS'S,0.333,<P4,m-2>'
p966
aS'S,0.333,<P4,m-2>'
p967
aS'S,0.333,<m3,m-3>'
p968
aS'S,0.333,<m2,P-4>'
p969
aS'S,0.333,<m2,P-4>'
p970
aS'S,0.333,<m3,m-3>'
p971
aS'S,0.333,<P4,m-2>'
p972
aS'S,0.333,<P4,m-2>'
p973
aS'S,0.333,<m3,m-3>'
p974
aS'S,0.333,<m2,P-4>'
p975
aS'S,0.333,<m2,P-4>'
p976
aS'S,0.500,<M-6,m-10>'
p977
aS'X,2.000,<A8,AA4>'
p978
aS'S,0.500,<A-10,M-14>'
p979
aS'X,0.500,<M3,d-3>'
p980
aS'S,0.500,<d10,m6>'
p981
aS'S,0.500,<m2,P-4>'
p982
aS'X,2.000,<P8,A4>'
p983
aS'S,0.250,<A-11,P-15>'
p984
aS'S,0.250,<P4,m-2>'
p985
aS'C,0.000,<M3,d-3>'
p986
aS'C,0.000,<dd5,d1>'
p987
aS'S,1.000,<P4,m-2>'
p988
aS'X,1.000,<A11,A7>'
p989
aS'X,1.000,<A-6,M-10>'
p990
aS'S,1.000,<d12,P8>'
p991
aS'C,0.500,<A11,A7>'
p992
aS'X,0.333,<M-9,m-13>'
p993
aS'S,0.333,<dd5,d1>'
p994
aS'X,0.250,<A11,A7>'
p995
aS'X,0.250,<m3,m-3>'
p996
aS'S,0.333,<A-6,M-10>'
p997
aS'X,0.250,<M10,A6>'
p998
aS'S,0.333,<A-6,M-10>'
p999
aS'X,0.250,<M10,A6>'
p1000
aS'S,0.333,<A-7,A-11>'
p1001
aS'S,0.500,<m14,M10>'
p1002
aS'X,0.333,<d-12,d-16>'
p1003
aS'X,0.500,<m3,m-3>'
p1004
aS'S,0.000,<d15,P11>'
p1005
aS'S,0.500,<M-10,m-14>'
p1006
aS'S,0.000,<m14,M10>'
p1007
aS'A,0.000,<m3,m-3>'
p1008
aS'S,0.500,<A-9,M-13>'
p1009
aS'A,0.000,<M13,A9>'
p1010
aS'C,0.000,<P5,A1>'
p1011
aS'S,0.500,<A-11,P-15>'
p1012
aS'X,0.000,<d12,P8>'
p1013
aS'S,0.333,<M-7,P-11>'
p1014
aS'X,0.333,<M3,d-3>'
p1015
aS'X,0.000,<m14,M10>'
p1016
aS'A,0.000,<m3,m-3>'
p1017
aS'X,0.333,<AA-8,A-12>'
p1018
aS'A,0.000,<A12,AA8>'
p1019
aS'X,0.333,<AA-8,A-12>'
p1020
aS'X,0.000,<A12,AA8>'
p1021
aS'X,0.333,<M-10,m-14>'
p1022
aS'S,0.000,<d17,m13>'
p1023
aS'S,0.333,<M-13,m-17>'
p1024
aS'S,0.500,<m3,m-3>'
p1025
aS'S,0.000,<M16,A12>'
p1026
aS'S,0.500,<P-12,m-16>'
p1027
aS'S,0.000,<m16,P12>'
p1028
aS'A,0.000,<m3,m-3>'
p1029
aS'X,0.500,<A-11,P-15>'
p1030
aS'A,0.000,<P15,A11>'
p1031
aS'X,0.000,<d6,m2>'
p1032
aS'X,0.500,<M-13,m-17>'
p1033
aS'S,0.000,<M13,A9>'
p1034
aS'S,0.000,<A-5,M-9>'
p1035
aS'S,0.000,<P4,m-2>'
p1036
aS'A,0.000,<P4,m-2>'
p1037
aS'C,0.000,<d4,M-2>'
p1038
aS'S,0.000,<P4,m-2>'
p1039
aS'X,0.000,<P4,m-2>'
p1040
aS'X,0.000,<M3,d-3>'
p1041
aS'S,0.000,<dd5,d1>'
p1042
aS'S,0.000,<P4,m-2>'
p1043
aS'S,0.000,<P4,m-2>'
p1044
aS'S,0.000,<A-8,P-12>'
p1045
aS'S,0.000,<P4,m-2>'
p1046
aS'A,0.000,<P4,m-2>'
p1047
aS'C,0.000,<d4,M-2>'
p1048
aS'S,0.000,<P4,m-2>'
p1049
aS'X,0.000,<P4,m-2>'
p1050
aS'X,0.000,<M3,d-3>'
p1051
aS'S,0.000,<dd5,d1>'
p1052
aS'S,0.000,<P4,m-2>'
p1053
aS'A,0.000,<P4,m-2>'
p1054
aS'C,0.250,<d4,M-2>'
p1055
aS'C,0.250,<P4,m-2>'
p1056
aS'X,0.250,<P4,m-2>'
p1057
aS'C,0.250,<m2,P-4>'
p1058
aS'X,0.250,<m2,P-4>'
p1059
aS'C,0.250,<P4,m-2>'
p1060
aS'A,0.250,<P4,m-2>'
p1061
aS'S,0.250,<m2,P-4>'
p1062
aS'C,0.250,<m2,P-4>'
p1063
aS'C,0.250,<P4,m-2>'
p1064
aS'X,0.250,<P4,m-2>'
p1065
aS'C,0.250,<m2,P-4>'
p1066
aS'X,0.250,<m2,P-4>'
p1067
aS'C,0.250,<P4,m-2>'
p1068
aS'A,0.250,<P4,m-2>'
p1069
aS'S,0.250,<m2,P-4>'
p1070
aS'C,1.000,<m2,P-4>'
p1071
aS'C,0.000,<M-13,m-17>'
p1072
aS'C,0.000,<m3,m-3>'
p1073
aS'C,0.000,<m3,m-3>'
p1074
aS'C,0.000,<m3,m-3>'
p1075
aS'X,0.000,<P5,A1>'
p1076
aS'X,4.000,<m-3,d-7>S,0.000'
p1077
aS'A,0.000,<d4,M-2>'
p1078
aS'C,0.000,<M-16,m-20>'
p1079
aS'A,2.000,<m6,M2>'
p1080
aS'S,0.000,<P11,M7>'
p1081
aS'X,0.000,<d1,P-5>'
p1082
aS'S,1.000,<M6,A2>'
p1083
aS'X,0.000,<A-12,M-16>'
p1084
aS'S,0.000,<P12,A8>'
p1085
aS'S,0.000,<P11,M7>'
p1086
aS'A,0.000,<d4,M-2>'
p1087
aS'C,0.000,<M-16,m-20>'
p1088
aS'S,0.000,<m14,M10>'
p1089
aS'X,0.000,<d1,P-5>'
p1090
aS'S,1.000,<M6,A2>'
p1091
aS'X,0.000,<A-12,M-16>'
p1092
aS'S,0.000,<P12,A8>'
p1093
aS'S,0.000,<P11,M7>'
p1094
aS'A,0.000,<d4,M-2>'
p1095
aS'C,0.000,<M-16,m-20>'
p1096
aS'S,0.000,<m14,M10>'
p1097
aS'X,0.000,<d1,P-5>'
p1098
aS'S,0.000,<M6,A2>'
p1099
aS'X,0.000,<A-12,M-16>'
p1100
aS'S,0.500,<P22,A18>'
p1101
aS'S,0.000,<M-9,m-13>'
p1102
aS'A,0.000,<d12,P8>'
p1103
aS'C,0.000,<M-16,m-20>'
p1104
aS'A,0.250,<m13,M9>'
p1105
aS'X,0.000,<m2,P-4>'
p1106
aS'S,0.250,<P5,A1>'
p1107
aS'S,1.000,<P4,m-2>'
p1108
aS'X,0.000,<A-12,M-16>'
p1109
aS'S,0.000,<P12,A8>'
p1110
aS'S,0.000,<P11,M7>'
p1111
aS'A,0.000,<d4,M-2>'
p1112
aS'C,0.000,<M-16,m-20>'
p1113
aS'A,2.000,<m6,M2>'
p1114
aS'S,0.500,<P11,M7>'
p1115
aS'X,0.000,<d1,P-5>'
p1116
aS'S,1.000,<M6,A2>'
p1117
aS'X,0.000,<A-12,M-16>'
p1118
aS'S,0.000,<P12,A8>'
p1119
aS'S,0.000,<P11,M7>'
p1120
aS'A,0.000,<d4,M-2>'
p1121
aS'C,0.000,<M-16,m-20>'
p1122
aS'S,0.000,<m14,M10>'
p1123
aS'X,0.000,<d1,P-5>'
p1124
aS'S,0.500,<M6,A2>'
p1125
aS'X,0.000,<A-12,M-16>'
p1126
aS'S,0.500,<P22,A18>'
p1127
aS'S,0.000,<M-9,m-13>'
p1128
aS'S,0.000,<m14,M10>'
p1129
aS'C,0.000,<A-18,P-22>'
p1130
aS'S,0.000,<P22,A18>'
p1131
aS'S,0.000,<m3,m-3>'
p1132
aS'X,0.000,<A-9,M-13>'
p1133
aS'S,0.000,<M13,A9>'
p1134
aS'S,0.000,<m3,m-3>'
p1135
aS'X,0.000,<A-19,M-23>'
p1136
aS'S,0.000,<P26,A22>'
p1137
aS'S,0.000,<M-13,m-17>'
p1138
aS'C,1.000,<m16,P12>'
p1139
aS'C,0.000,<M-20,m-24>'
p1140
aS'X,0.000,<d12,P8>'
p1141
aS'X,2.000,<m14,M10>'
p1142
aS'X,0.000,<M-20,m-24>'
p1143
aS'S,0.000,<P12,A8>'
p1144
aS'X,0.250,<d14,m10>'
p1145
aS'C,0.250,<A1,dd-5>'
p1146
aS'C,1.000,<A-2,M-6>'
p1147
aS'C,0.000,<M-13,m-17>'
p1148
aS'A,2.000,<m20,M16>'
p1149
aS'X,0.000,<M-7,P-11>'
p1150
aS'X,0.500,<m7,M3>'
p1151
aS'X,0.000,<M-13,m-17>'
p1152
aS'X,0.250,<m16,P12>'
p1153
aS'S,0.000,<m-3,d-7>'
p1154
aS'C,0.250,<P5,A1>'
p1155
aS'A,2.000,<d3,M-3>'
p1156
aS'C,0.000,<M-9,m-13>'
p1157
aS'C,1.000,<m10,M6>'
p1158
aS'X,0.000,<d5,P1>'
p1159
aS'X,0.000,<M-9,m-13>'
p1160
aS'X,0.500,<m10,M6>'
p1161
aS'S,0.000,<P5,A1>'
p1162
aS'X,0.250,<A-2,M-6>'
p1163
aS'C,0.250,<A1,dd-5>'
p1164
aS'X,1.000,<d2,A-4>'
p1165
aS'A,1.000,<A1,dd-5>'
p1166
aS'C,0.000,<d19,P15>'
p1167
aS'X,0.000,<d4,M-2>'
p1168
aS'S,0.000,<M-16,m-20>'
p1169
aS'X,2.000,<m6,M2>'
p1170
aS'S,0.000,<P11,M7>'
p1171
aS'X,0.000,<d1,P-5>'
p1172
aS'S,1.000,<M6,A2>'
p1173
aS'X,0.000,<A-12,M-16>'
p1174
aS'S,0.000,<P12,A8>'
p1175
aS'S,0.000,<P11,M7>'
p1176
aS'S,0.000,<d4,M-2>'
p1177
aS'A,0.000,<M-16,m-20>'
p1178
aS'X,0.000,<m14,M10>'
p1179
aS'S,0.000,<d1,P-5>'
p1180
aS'S,1.000,<M6,A2>'
p1181
aS'X,0.000,<A-12,M-16>'
p1182
aS'C,0.000,<P12,A8>'
p1183
aS'S,0.000,<P11,M7>'
p1184
aS'X,0.000,<d4,M-2>'
p1185
aS'S,0.000,<M-16,m-20>'
p1186
aS'S,0.000,<m14,M10>'
p1187
aS'X,0.000,<d1,P-5>'
p1188
aS'S,0.000,<M6,A2>'
p1189
aS'X,0.000,<A-12,M-16>'
p1190
aS'S,0.500,<P22,A18>'
p1191
aS'S,0.000,<M-9,m-13>'
p1192
aS'X,0.000,<d12,P8>'
p1193
aS'C,0.000,<M-16,m-20>'
p1194
aS'S,0.250,<m13,M9>'
p1195
aS'S,0.000,<m2,P-4>'
p1196
aS'X,0.250,<P5,A1>'
p1197
aS'X,1.000,<P4,m-2>'
p1198
aS'S,0.000,<A-12,M-16>'
p1199
aS'C,0.000,<P12,A8>'
p1200
aS'S,0.000,<P11,M7>'
p1201
aS'S,0.000,<m10,M6>'
p1202
aS'X,0.000,<A-5,M-9>'
p1203
aS'X,0.000,<m10,M6>'
p1204
aS'C,0.500,<P-12,m-16>'
p1205
aS'C,0.000,<m10,M6>'
p1206
aS'S,0.000,<P-11,d-15>'
p1207
aS'S,1.000,<m9,P5>'
p1208
aS'S,1.000,<m10,M6>'
p1209
aS'X,0.000,<A-9,M-13>'
p1210
aS'S,0.000,<M10,A6>'
p1211
aS'S,0.000,<m10,M6>'
p1212
aS'X,0.000,<A-5,M-9>'
p1213
aS'X,0.000,<m10,M6>'
p1214
aS'X,0.000,<P-12,m-16>'
p1215
aS'X,0.000,<m10,M6>'
p1216
aS'S,0.000,<m-10,d-14>'
p1217
aS'S,0.000,<d8,P4>'
p1218
aS'S,0.000,<m10,M6>'
p1219
aS'C,0.000,<m2,P-4>'
p1220
aS'C,0.000,<m10,M6>'
p1221
aS'S,0.000,<P-15,d-19>'
p1222
aS'A,0.000,<m13,M9>'
p1223
aS'A,0.000,<m10,M6>'
p1224
aS'A,0.000,<M-6,m-10>'
p1225
aS'A,0.000,<m10,M6>'
p1226
aS'A,0.000,<M-6,m-10>'
p1227
aS'A,0.000,<m10,M6>'
p1228
aS'X,0.000,<M-14,P-18>'
p1229
aS'A,0.000,<P11,M7>'
p1230
aS'A,0.000,<m10,M6>'
p1231
aS'C,0.000,<M-6,m-10>'
p1232
aS'C,0.000,<m10,M6>'
p1233
aS'C,0.000,<M-3,m-7>'
p1234
aS'C,0.000,<m10,M6>'
p1235
aS'S,0.000,<P-18,d-22>'
p1236
aS'A,1.000,<d14,m10>'
p1237
aS'A,1.000,<m10,M6>'
p1238
aS'X,0.000,<m-17,d-21>'
p1239
aS'X,3.000,<d13,m9>'
p1240
aS'X,1.000,<m10,M6>'
p1241
aS'S,0.000,<m-17,d-21>'
p1242
aS'A,0.000,<d11,m7>'
p1243
aS'A,0.000,<m3,m-3>'
p1244
aS'A,0.000,<m3,m-3>'
p1245
aS'X,0.000,<M-7,P-11>'
p1246
aS'A,0.000,<P11,M7>'
p1247
aS'X,0.000,<P4,m-2>'
p1248
aS'C,0.000,<m2,P-4>'
p1249
aS'X,0.000,<P-8,d-12>'
p1250
aS'X,0.250,<d7,m3>'
p1251
aS'X,0.250,<m3,m-3>'
p1252
aS'X,0.250,<m3,m-3>'
p1253
aS'X,0.000,<M-2,m-6>'
p1254
aS'X,0.250,<m6,M2>'
p1255
aS'C,0.000,<P4,m-2>'
p1256
aS'S,0.000,<m2,P-4>'
p1257
aS'X,0.000,<m-3,d-7>'
p1258
aS'A,2.000,<d8,P4>'
p1259
aS'A,0.000,<M-2,m-6>'
p1260
aS'A,0.000,<m3,m-3>'
p1261
aS'A,0.000,<m3,m-3>'
p1262
aS'X,0.000,<m2,P-4>'
p1263
aS'A,0.000,<P4,m-2>'
p1264
aS'X,0.000,<P4,m-2>'
p1265
aS'C,2.500,<m2,P-4>'
p1266
aS'X,0.000,<P1,d-5>'
p1267
aS'X,0.000,<A-2,M-6>'
p1268
aS'X,0.000,<m3,m-3>'
p1269
aS'X,0.000,<m3,m-3>'
p1270
aS'X,0.000,<m7,M3>'
p1271
aS'X,0.000,<M-3,m-7>'
p1272
aS'C,0.000,<P4,m-2>'
p1273
aS'S,0.000,<m2,P-4>'
p1274
aS'X,0.000,<M6,A2>'
p1275
aS'A,0.000,<d8,P4>'
p1276
aS'A,0.000,<m3,m-3>'
p1277
aS'A,0.000,<m3,m-3>'
p1278
aS'A,0.000,<m3,m-3>'
p1279
aS'C,0.000,<M-2,m-6>'
p1280
aS'C,0.000,<m3,m-3>'
p1281
aS'C,0.000,<m3,m-3>'
p1282
aS'C,0.000,<m3,m-3>'
p1283
aS'X,0.000,<M-3,m-7>'
p1284
aS'X,0.000,<m3,m-3>'
p1285
aS'X,0.000,<m3,m-3>'
p1286
aS'X,0.000,<m3,m-3>'
p1287
aS'C,0.000,<M-2,m-6>'
p1288
aS'C,0.000,<m3,m-3>'
p1289
aS'C,0.000,<m3,m-3>'
p1290
aS'C,0.000,<m3,m-3>'
p1291
aS'X,0.000,<M-3,m-7>'
p1292
aS'X,0.000,<m3,m-3>'
p1293
aS'X,0.000,<m3,m-3>'
p1294
aS'X,0.000,<m3,m-3>'
p1295
aS'S,0.000,<m3,m-3>'
p1296
aS'X,0.000,<m2,P-4>'
p1297
aS'S,0.000,<M2,d-4>'
p1298
aS'C,1.000,<m-7,d-11>'
p1299
aS'X,1.000,<m24,M20>'
p1300
aS'X,1.000,<M-2,m-6>'
p1301
aS'X,1.000,<dd8,d4>'
p1302
aS'X,1.000,<A1,dd-5>'
p1303
aS'S,0.500,<d7,m3>'
p1304
aS'S,0.500,<m3,m-3>'
p1305
aS'S,0.500,<m3,m-3>'
p1306
aS'X,0.500,<m-3,d-7>'
p1307
aS'X,1.000,<dd5,d1>'
p1308
aS'X,1.000,<A1,dd-5>'
p1309
aS'X,0.000,<M-6,m-10>'
p1310
aS'X,0.250,<m24,M20>'
p1311
aS'C,2.000,<M-7,P-11>'
p1312
aS'X,0.250,<d13,m9>'
p1313
aS'C,0.000,<M-20,m-24>'
p1314
aS'C,0.250,<A19,AA15>'
p1315
aS'A,0.250,<A-12,M-16>'
p1316
aS'S,0.250,<d18,m14>'
p1317
aS'C,0.000,<d-22,dd-26>'
p1318
aS'C,0.500,<m20,M16>'
p1319
aS'A,0.000,<A-14,A-18>'
p1320
aS'S,0.250,<A25,A21>'
p1321
aS'A,0.250,<dd5,d1>'
p1322
aS'S,0.000,<d-29,dd-33>'
p1323
aS'C,0.250,<m28,M24>'
p1324
aS'S,0.000,<M-3,m-7>'
p1325
aS'S,1.750,<m2,P-4>'
p1326
aS'A,0.250,<d10,m6>'
p1327
aS'X,0.500,<d-5,d-9>'
p1328
aS'X,0.000,<M-13,m-17>'
p1329
aS'X,0.250,<m24,M20>'
p1330
aS'C,0.250,<dd5,d1>'
p1331
aS'C,0.000,<M-20,m-24>'
p1332
aS'C,0.250,<A19,AA15>'
p1333
aS'A,0.250,<A-12,M-16>'
p1334
aS'S,0.250,<d18,m14>'
p1335
aS'C,0.000,<d-22,dd-26>'
p1336
aS'C,0.500,<m20,M16>'
p1337
aS'S,1.000,<d3,M-3>'
p1338
aS'A,0.000,<M-14,P-18>'
p1339
aS'S,0.250,<A25,A21>'
p1340
aS'A,0.250,<dd5,d1>'
p1341
aS'S,0.000,<d-29,dd-33>'
p1342
aS'C,0.250,<m28,M24>'
p1343
aS'S,0.000,<M-3,m-7>'
p1344
aS'S,0.750,<m2,P-4>'
p1345
aS'A,0.250,<d10,m6>'
p1346
aS'X,0.500,<d-5,d-9>'
p1347
aS'X,0.000,<M-13,m-17>'
p1348
aS'X,0.250,<m24,M20>'
p1349
aS'C,0.250,<dd5,d1>'
p1350
aS'C,0.000,<M-20,m-24>'
p1351
aS'C,0.250,<A19,AA15>'
p1352
aS'A,0.250,<A-12,M-16>'
p1353
aS'S,0.250,<d18,m14>'
p1354
aS'C,0.000,<d-22,dd-26>'
p1355
aS'C,0.250,<m20,M16>'
p1356
aS'C,0.250,<dd5,d1>'
p1357
aS'A,0.000,<M-16,m-20>'
p1358
aS'A,0.250,<m21,M17>'
p1359
aS'S,0.250,<M3,d-3>'
p1360
aS'C,0.250,<P4,m-2>'
p1361
aS'C,0.000,<M-3,m-7>'
p1362
aS'X,0.000,<m2,P-4>'
p1363
aS'X,1.000,<P-5,m-9>'
p1364
aS'X,1.000,<M-2,m-6>'
p1365
aS'X,1.000,<dd8,d4>'
p1366
aS'X,1.000,<A1,dd-5>'
p1367
aS'S,0.500,<d8,P4>'
p1368
aS'S,0.500,<m3,m-3>'
p1369
aS'S,0.500,<m3,m-3>'
p1370
aS'X,0.500,<P-4,d-8>'
p1371
aS'X,1.000,<dd5,d1>'
p1372
aS'X,1.000,<A1,dd-5>'
p1373
aS'X,1.000,<M-2,m-6>'
p1374
aS'C,0.500,<d11,m7>'
p1375
aS'C,0.500,<m3,m-3>'
p1376
aS'C,0.500,<m3,m-3>'
p1377
aS'C,0.500,<P-4,d-8>'
p1378
aS'C,0.500,<d7,m3>'
p1379
aS'C,0.500,<m3,m-3>'
p1380
aS'C,0.500,<m3,m-3>'
p1381
aS'X,0.500,<m-3,d-7>'
p1382
aS'C,0.500,<d8,P4>'
p1383
aS'C,0.500,<m3,m-3>'
p1384
aS'C,0.500,<m3,m-3>'
p1385
aS'C,0.500,<P-4,d-8>'
p1386
aS'C,0.500,<d7,m3>'
p1387
aS'C,0.500,<m3,m-3>'
p1388
aS'C,0.500,<m3,m-3>'
p1389
aS'X,0.500,<m-3,d-7>'
p1390
aS'X,1.000,<d4,M-2>'
p1391
aS'X,1.000,<M-2,m-6>'
p1392
aS'X,1.000,<m7,M3>'
p1393
aS'X,1.000,<m2,P-4>'
p1394
aS'X,0.500,<M6,A2>'
p1395
aS'X,0.500,<m3,m-3>'
p1396
aS'X,0.500,<m3,m-3>'
p1397
aS'X,0.500,<A-2,M-6>'
p1398
aS'X,1.000,<P4,m-2>'
p1399
aS'X,1.000,<m2,P-4>'
p1400
aS'X,0.000,<M-6,m-10>'
p1401
aS'X,0.250,<m24,M20>'
p1402
aS'C,2.000,<M-7,P-11>'
p1403
aS'X,0.250,<P12,A8>'
p1404
aS'C,0.000,<M-20,m-24>'
p1405
aS'C,0.250,<m20,M16>'
p1406
aS'A,0.250,<A-12,M-16>'
p1407
aS'S,0.250,<M17,A13>'
p1408
aS'C,0.000,<M-21,P-25>'
p1409
aS'C,0.500,<m20,M16>'
p1410
aS'C,0.000,<P-15,d-19>'
p1411
aS'A,0.250,<d26,P22>'
p1412
aS'A,0.250,<P4,m-2>'
p1413
aS'A,1.000,<M-28,P-32>'
p1414
aS'A,0.250,<m28,M24>'
p1415
aS'A,0.000,<M-3,m-7>'
p1416
aS'A,2.750,<m2,P-4>'
p1417
aS'C,0.250,<M9,A5>'
p1418
aS'S,0.500,<A-4,P-8>'
p1419
aS'S,0.000,<M-13,m-17>'
p1420
aS'S,0.250,<m24,M20>'
p1421
aS'C,0.250,<P4,m-2>'
p1422
aS'C,0.000,<M-20,m-24>'
p1423
aS'C,0.250,<m20,M16>'
p1424
aS'A,0.250,<A-12,M-16>'
p1425
aS'S,0.250,<M17,A13>'
p1426
aS'C,0.000,<M-21,P-25>'
p1427
aS'C,0.500,<m20,M16>'
p1428
aS'C,0.000,<P-15,d-19>'
p1429
aS'A,0.250,<d26,P22>'
p1430
aS'A,0.250,<P4,m-2>'
p1431
aS'A,1.000,<M-28,P-32>'
p1432
aS'A,0.250,<m28,M24>'
p1433
aS'A,0.000,<M-3,m-7>'
p1434
aS'A,2.750,<m2,P-4>'
p1435
aS'C,0.250,<M9,A5>'
p1436
aS'S,0.500,<A-4,P-8>'
p1437
aS'S,0.000,<M-13,m-17>'
p1438
aS'S,0.250,<m24,M20>'
p1439
aS'C,0.250,<P4,m-2>'
p1440
aS'C,0.000,<M-20,m-24>'
p1441
aS'C,0.250,<m20,M16>'
p1442
aS'A,0.250,<A-12,M-16>'
p1443
aS'S,0.250,<M17,A13>'
p1444
aS'C,0.000,<M-21,P-25>'
p1445
aS'C,0.250,<m20,M16>'
p1446
aS'C,0.250,<P4,m-2>'
p1447
aS'C,0.000,<M-16,m-20>'
p1448
aS'A,0.250,<m21,M17>'
p1449
aS'X,0.250,<d4,M-2>'
p1450
aS'C,0.000,<M-2,m-6>'
p1451
aS'C,0.250,<m7,M3>'
p1452
aS'X,0.000,<A-4,P-8>'
p1453
aS'X,1.000,<P-5,m-9>'
p1454
aS'S,1.000,<d12,P8>'
p1455
aS'X,1.000,<m-7,d-11>'
p1456
aS'X,1.000,<m2,P-4>'
p1457
aS'S,0.500,<d8,P4>'
p1458
aS'S,0.500,<m3,m-3>'
p1459
aS'S,0.500,<m3,m-3>'
p1460
aS'X,0.500,<P-4,d-8>'
p1461
aS'X,1.000,<P4,m-2>'
p1462
aS'X,1.000,<m2,P-4>'
p1463
aS'X,1.000,<M-2,m-6>'
p1464
aS'C,0.500,<d11,m7>'
p1465
aS'C,0.500,<m3,m-3>'
p1466
aS'C,0.500,<m3,m-3>'
p1467
aS'C,0.500,<P-4,d-8>'
p1468
aS'C,0.500,<M6,A2>'
p1469
aS'C,0.500,<m3,m-3>'
p1470
aS'C,0.500,<m3,m-3>'
p1471
aS'X,0.500,<A-2,M-6>'
p1472
aS'C,0.500,<d8,P4>'
p1473
aS'C,0.500,<m3,m-3>'
p1474
aS'C,0.500,<m3,m-3>'
p1475
aS'C,0.500,<P-4,d-8>'
p1476
aS'C,0.500,<M6,A2>'
p1477
aS'C,0.500,<m3,m-3>'
p1478
aS'C,0.500,<m3,m-3>'
p1479
aS'X,0.500,<A-2,M-6>'
p1480
aS'S,0.500,<d8,P4>'
p1481
aS'S,0.500,<M-6,m-10>'
p1482
aS'S,0.500,<m10,M6>'
p1483
aS'S,0.500,<M-6,m-10>'
p1484
aS'C,0.500,<m-2,d-6>'
p1485
aS'S,0.500,<d13,m9>'
p1486
aS'S,0.500,<M-6,m-10>'
p1487
aS'S,0.500,<m6,M2>'
p1488
aS'S,0.500,<M-6,m-10>'
p1489
aS'C,0.500,<A4,d-2>'
p1490
aS'C,1.000,<m10,M6>'
p1491
aS'C,1.000,<M-6,m-10>'
p1492
aS'C,0.500,<m3,m-3>'
p1493
aS'X,1.000,<d9,d5>'
p1494
aS'X,1.000,<M-6,m-10>'
p1495
aS'C,0.500,<A4,d-2>'
p1496
aS'A,0.500,<m13,M9>'
p1497
aS'A,0.500,<M-6,m-10>'
p1498
aS'S,0.500,<m10,M6>'
p1499
aS'S,0.500,<M-6,m-10>'
p1500
aS'C,0.500,<d1,P-5>'
p1501
aS'S,0.500,<P12,A8>'
p1502
aS'S,0.500,<M-6,m-10>'
p1503
aS'S,0.500,<m6,M2>'
p1504
aS'S,0.500,<M-6,m-10>'
p1505
aS'C,0.500,<d5,P1>'
p1506
aS'C,1.000,<m10,M6>'
p1507
aS'C,1.000,<M-6,m-10>'
p1508
aS'C,0.500,<m3,m-3>'
p1509
aS'X,1.000,<P8,A4>'
p1510
aS'X,1.000,<M-6,m-10>'
p1511
aS'C,0.500,<d5,P1>'
p1512
aS'S,2.000,<M-10,m-14>'
p1513
aS'X,0.250,<P32,M28>'
p1514
aS'C,0.250,<m2,P-4>'
p1515
aS'X,0.000,<M-2,m-6>'
p1516
aS'X,0.250,<P-5,m-9>'
p1517
aS'X,0.250,<m2,P-4>'
p1518
aS'X,0.000,<M10,A6>'
p1519
aS'X,0.250,<M-7,P-11>'
p1520
aS'S,0.250,<d12,P8>'
p1521
aS'C,0.250,<m2,P-4>'
p1522
aS'X,0.000,<M-3,m-7>'
p1523
aS'S,0.250,<P-4,d-8>'
p1524
aS'S,0.250,<m2,P-4>'
p1525
aS'S,0.000,<M9,A5>'
p1526
aS'X,0.250,<A-6,M-10>'
p1527
aS'X,0.250,<P11,M7>'
p1528
aS'C,0.250,<m2,P-4>'
p1529
aS'X,0.000,<M-2,m-6>'
p1530
aS'X,0.250,<P-5,m-9>'
p1531
aS'X,0.250,<m2,P-4>'
p1532
aS'X,0.000,<M10,A6>'
p1533
aS'X,0.250,<M-7,P-11>'
p1534
aS'S,0.250,<d12,P8>'
p1535
aS'C,0.250,<m2,P-4>'
p1536
aS'X,0.000,<M-3,m-7>'
p1537
aS'S,0.250,<P-4,d-8>'
p1538
aS'S,0.000,<P8,A4>'
p1539
aS'X,0.250,<AA-4,A-8>'
p1540
aS'S,0.250,<M2,d-4>'
p1541
aS'S,0.000,<m3,m-3>'
p1542
aS'S,0.000,<m3,m-3>'
p1543
aS'S,0.000,<m3,m-3>'
p1544
aS'S,0.500,<m3,m-3>'
p1545
aS'S,0.500,<m7,M3>'
p1546
aS'A,6.000,<m-7,d-11>'
p1547
a.