c__builtin__
set
p0
((lp1
S'C,1.000,<A15,AA11>'
p2
aS'C,0.000,<P22,A18>'
p3
aS'X,0.000,<A12,AA8>'
p4
aS'C,0.500,<m-2,d-6>'
p5
aS'X,0.000,<m-3,d-7>'
p6
aS'C,0.000,<M-16,m-20>'
p7
aS'C,0.500,<M-17,m-21>'
p8
aS'X,0.250,<m3,m-3>'
p9
aS'C,0.000,<d8,P4>'
p10
aS'S,0.500,<M-9,m-13>'
p11
aS'X,0.000,<P5,A1>'
p12
aS'S,0.250,<d18,m14>'
p13
aS'A,0.000,<M3,d-3>'
p14
aS'X,2.000,<d3,M-3>'
p15
aS'C,0.667,<M-23,m-27>'
p16
aS'X,0.250,<A1,dd-5>'
p17
aS'X,0.000,<A-4,P-8>'
p18
aS'X,0.250,<m21,M17>'
p19
aS'X,0.500,<A-6,M-10>'
p20
aS'S,1.000,<M-6,m-10>'
p21
aS'X,0.250,<d4,M-2>'
p22
aS'S,0.000,<m9,P5>'
p23
aS'S,0.000,<m3,m-3>'
p24
aS'S,0.500,<m-3,d-7>'
p25
aS'C,1.500,<m7,M3>'
p26
aS'X,0.000,<A-10,M-14>'
p27
aS'S,0.000,<d5,P1>'
p28
aS'X,1.500,<M20,A16>'
p29
aS'S,0.000,<dd29,d25>'
p30
aS'S,0.250,<M-3,m-7>'
p31
aS'S,0.500,<P-5,m-9>'
p32
aS'C,0.000,<m3,m-3>'
p33
aS'S,1.000,<d3,M-3>'
p34
aS'X,0.000,<M-6,m-10>'
p35
aS'S,0.000,<A-18,P-22>'
p36
aS'S,1.000,<m10,M6>'
p37
aS'C,0.500,<A-15,P-19>'
p38
aS'S,0.500,<m6,M2>'
p39
aS'A,0.000,<M14,A10>'
p40
aS'C,1.500,<d6,m2>'
p41
aS'A,0.250,<M-20,m-24>'
p42
aS'X,0.250,<M2,d-4>'
p43
aS'S,0.250,<m-3,d-7>'
p44
aS'X,1.000,<m24,M20>'
p45
aS'X,0.000,<m14,M10>'
p46
aS'X,0.000,<d25,m21>'
p47
aS'X,0.000,<P26,A22>'
p48
aS'S,0.333,<dd5,d1>'
p49
aS'X,0.667,<A-11,P-15>'
p50
aS'S,0.000,<A-10,M-14>'
p51
aS'A,2.000,<d8,P4>'
p52
aS'X,1.000,<m3,m-3>'
p53
aS'X,0.000,<m7,M3>'
p54
aS'X,1.000,<A1,dd-5>'
p55
aS'X,1.000,<P1,d-5>'
p56
aS'C,0.250,<M-6,m-10>'
p57
aS'S,0.000,<P22,A18>'
p58
aS'A,0.000,<dd12,d8>'
p59
aS'A,0.000,<A5,AA1>'
p60
aS'X,0.333,<M-13,m-17>'
p61
aS'S,0.000,<m10,M6>'
p62
aS'S,0.000,<dd5,d1>'
p63
aS'X,0.500,<m2,P-4>'
p64
aS'C,0.250,<d4,M-2>'
p65
aS'C,0.000,<m7,M3>'
p66
aS'X,0.000,<d6,m2>'
p67
aS'A,0.000,<M-14,P-18>'
p68
aS'X,0.250,<A-2,M-6>'
p69
aS'X,0.250,<d6,m2>'
p70
aS'X,0.500,<A1,dd-5>'
p71
aS'X,0.250,<A-22,P-26>'
p72
aS'A,0.250,<d26,P22>'
p73
aS'X,4.000,<m-3,d-7>S,0.000'
p74
aS'A,0.250,<d3,M-3>'
p75
aS'X,4.000,<A1,dd-5>'
p76
aS'S,2.000,<d3,M-3>'
p77
aS'C,0.000,<d6,m2>'
p78
aS'C,2.000,<m16,P12>'
p79
aS'S,0.500,<A-4,P-8>'
p80
aS'X,0.250,<d7,m3>'
p81
aS'A,0.000,<A-12,M-16>'
p82
aS'X,0.000,<M-2,m-6>'
p83
aS'C,2.000,<M-7,P-11>'
p84
aS'S,0.250,<P19,A15>'
p85
aS'C,2.000,<d18,m14>'
p86
aS'S,0.000,<M17,A13>'
p87
aS'X,0.500,<A-2,M-6>'
p88
aS'S,0.000,<m-17,d-21>'
p89
aS'S,0.000,<d24,m20>'
p90
aS'A,0.000,<P26,A22>'
p91
aS'X,0.000,<M-10,m-14>'
p92
aS'C,0.500,<M-16,m-20>'
p93
aS'C,0.500,<M2,d-4>'
p94
aS'S,2.000,<m20,M16>'
p95
aS'S,0.500,<A-5,M-9>'
p96
aS'S,0.000,<m2,P-4>'
p97
aS'X,0.000,<A-19,M-23>'
p98
aS'C,0.000,<dd5,d1>'
p99
aS'X,0.000,<A15,AA11>'
p100
aS'S,0.000,<P11,M7>'
p101
aS'C,0.250,<M-20,m-24>'
p102
aS'S,0.250,<P18,M14>'
p103
aS'X,0.000,<A-14,A-18>'
p104
aS'A,1.000,<d14,m10>'
p105
aS'X,0.333,<A-11,P-15>'
p106
aS'C,0.000,<P8,A4>'
p107
aS'S,0.000,<m-10,d-14>'
p108
aS'A,0.000,<M9,A5>'
p109
aS'S,0.000,<M-23,m-27>'
p110
aS'C,0.000,<d4,M-2>'
p111
aS'X,0.250,<m6,M2>'
p112
aS'C,0.500,<d8,P4>'
p113
aS'S,0.000,<m14,M10>'
p114
aS'S,1.000,<M6,A2>'
p115
aS'A,0.250,<dd5,d1>'
p116
aS'X,0.500,<m13,M9>'
p117
aS'C,0.000,<A-3,M-7>'
p118
aS'S,0.000,<d15,P11>'
p119
aS'S,0.250,<m17,M13>'
p120
aS'A,0.000,<M27,A23>'
p121
aS'X,0.500,<M6,A2>'
p122
aS'S,0.250,<d5,P1>'
p123
aS'S,0.000,<M-20,m-24>'
p124
aS'X,0.333,<m-10,d-14>'
p125
aS'S,1.000,<d12,P8>'
p126
aS'A,0.000,<M-2,m-6>'
p127
aS'X,0.500,<M-6,m-10>'
p128
aS'C,1.000,<m16,P12>'
p129
aS'C,1.000,<M-6,m-10>'
p130
aS'A,0.250,<dd22,d18>'
p131
aS'X,0.250,<P-5,m-9>'
p132
aS'S,1.000,<m9,P5>'
p133
aS'X,2.000,<A18,A14>'
p134
aS'S,0.250,<d20,m16>'
p135
aS'X,0.250,<P4,m-2>'
p136
aS'C,0.250,<A5,AA1>'
p137
aS'S,0.000,<m6,M2>'
p138
aS'C,0.333,<M-10,m-14>'
p139
aS'X,1.000,<P8,A4>'
p140
aS'X,0.000,<M-14,P-18>'
p141
aS'C,0.500,<A4,d-2>'
p142
aS'A,0.000,<dd26,d22>'
p143
aS'S,0.000,<d27,m23>'
p144
aS'C,0.250,<M13,A9>'
p145
aS'A,3.500,<P29,A25>'
p146
aS'X,1.000,<A-9,M-13>'
p147
aS'S,0.250,<dd5,d1>'
p148
aS'X,0.500,<P-5,m-9>'
p149
aS'S,1.000,<P12,A8>'
p150
aS'A,0.000,<d4,M-2>'
p151
aS'S,0.000,<M-6,m-10>'
p152
aS'X,0.000,<d-8,dd-12>'
p153
aS'S,0.500,<M6,A2>'
p154
aS'S,0.500,<A-11,P-15>'
p155
aS'C,0.000,<d-22,dd-26>'
p156
aS'S,0.000,<m7,M3>'
p157
aS'C,0.500,<m14,M10>'
p158
aS'X,0.000,<d5,P1>'
p159
aS'C,0.250,<m6,M2>'
p160
aS'C,0.500,<m7,M3>'
p161
aS'S,0.333,<M-7,P-11>'
p162
aS'S,0.000,<M3,d-3>'
p163
aS'C,0.500,<M-3,m-7>'
p164
aS'X,0.250,<m10,M6>'
p165
aS'S,0.250,<P4,m-2>'
p166
aS'X,0.500,<m-3,d-7>'
p167
aS'X,0.500,<d7,m3>'
p168
aS'C,0.250,<d9,d5>'
p169
aS'X,2.000,<A8,AA4>'
p170
aS'S,0.000,<M2,d-4>'
p171
aS'X,0.000,<d12,P8>'
p172
aS'S,0.000,<M9,A5>'
p173
aS'X,0.333,<m-3,d-7>'
p174
aS'S,0.500,<m9,P5>'
p175
aS'X,0.250,<m7,M3>'
p176
aS'X,0.000,<M9,A5>'
p177
aS'C,0.000,<AA-18,A-22>'
p178
aS'C,0.250,<d3,M-3>'
p179
aS'X,0.000,<M-3,m-7>'
p180
aS'X,0.000,<d4,M-2>'
p181
aS'C,0.000,<A15,AA11>'
p182
aS'X,0.000,<A-2,M-6>'
p183
aS'X,0.333,<dd5,d1>'
p184
aS'A,0.000,<m7,M3>'
p185
aS'C,0.000,<d22,P18>'
p186
aS'A,0.000,<P11,M7>'
p187
aS'X,0.000,<M3,d-3>'
p188
aS'C,0.250,<m3,m-3>'
p189
aS'C,0.250,<dd5,d1>'
p190
aS'S,0.000,<P8,A4>'
p191
aS'A,0.000,<d12,P8>'
p192
aS'A,0.250,<A-16,M-20>'
p193
aS'X,0.500,<P5,A1>'
p194
aS'X,0.500,<d1,P-5>'
p195
aS'S,2.000,<M-13,m-17>'
p196
aS'A,0.250,<P-4,d-8>'
p197
aS'A,1.000,<m-9,d-13>'
p198
aS'A,0.000,<A-15,P-19>'
p199
aS'C,0.500,<m-3,d-7>'
p200
aS'S,0.000,<d18,m14>'
p201
aS'C,0.000,<M3,d-3>'
p202
aS'C,0.000,<M7,A3>'
p203
aS'S,0.000,<P-18,d-22>'
p204
aS'A,0.500,<m14,M10>'
p205
aS'A,0.000,<A-14,A-18>'
p206
aS'A,0.250,<m21,M17>'
p207
aS'A,0.250,<d4,M-2>'
p208
aS'X,1.000,<A-6,M-10>'
p209
aS'X,0.500,<d-5,d-9>'
p210
aS'S,0.333,<M-16,m-20>'
p211
aS'X,0.500,<P19,A15>'
p212
aS'C,0.500,<P-8,d-12>'
p213
aS'S,0.500,<m3,m-3>'
p214
aS'S,1.000,<P5,A1>'
p215
aS'X,0.667,<M-13,m-17>'
p216
aS'A,0.000,<m10,M6>'
p217
aS'S,0.250,<m3,m-3>'
p218
aS'X,0.250,<P12,A8>'
p219
aS'X,0.500,<P11,M7>'
p220
aS'X,2.000,<P8,A4>'
p221
aS'C,0.000,<M14,A10>'
p222
aS'C,0.500,<m-13,d-17>'
p223
aS'X,0.250,<M16,A12>'
p224
aS'S,0.250,<d4,M-2>'
p225
aS'S,0.500,<A-10,M-14>'
p226
aS'X,0.250,<M10,A6>'
p227
aS'X,0.000,<d1,P-5>'
p228
aS'C,0.000,<m-20,d-24>'
p229
aS'S,1.750,<m2,P-4>'
p230
aS'A,0.000,<M-3,m-7>'
p231
aS'A,2.000,<m6,M2>'
p232
aS'A,0.000,<A-2,M-6>'
p233
aS'S,0.333,<A-10,M-14>'
p234
aS'S,0.000,<m17,M13>'
p235
aS'X,0.333,<A-2,M-6>'
p236
aS'S,0.000,<A-8,P-12>'
p237
aS'S,0.000,<A-22,P-26>'
p238
aS'X,0.000,<M-9,m-13>'
p239
aS'X,1.000,<d-5,d-9>'
p240
aS'C,0.250,<m28,M24>'
p241
aS'A,0.250,<d6,m2>'
p242
aS'A,0.250,<M2,d-4>'
p243
aS'S,0.500,<A-9,M-13>'
p244
aS'X,0.000,<M-20,m-24>'
p245
aS'S,0.000,<A-12,M-16>'
p246
aS'S,0.000,<d8,P4>'
p247
aS'C,0.250,<M2,d-4>'
p248
aS'X,0.333,<M-14,P-18>'
p249
aS'S,0.333,<A-14,A-18>'
p250
aS'C,1.000,<m-7,d-11>'
p251
aS'C,0.500,<M3,d-3>'
p252
aS'X,0.000,<M10,A6>'
p253
aS'X,0.250,<m16,P12>'
p254
aS'S,2.000,<M-10,m-14>'
p255
aS'A,0.000,<P15,A11>'
p256
aS'C,0.000,<M-20,m-24>'
p257
aS'X,0.250,<d14,m10>'
p258
aS'S,0.333,<P-5,m-9>'
p259
aS'S,0.250,<P-4,d-8>'
p260
aS'S,0.000,<m23,P19>'
p261
aS'S,0.500,<A-23,M-27>'
p262
aS'S,0.333,<m3,m-3>'
p263
aS'C,1.500,<d2,A-4>'
p264
aS'C,0.250,<P5,A1>'
p265
aS'X,0.250,<A-4,P-8>'
p266
aS'X,0.000,<m-17,d-21>'
p267
aS'S,0.333,<P-12,m-16>'
p268
aS'C,0.000,<dd1,A-5>'
p269
aS'S,2.000,<M20,A16>'
p270
aS'A,0.333,<A-12,M-16>'
p271
aS'S,0.250,<dd12,d8>'
p272
aS'S,0.250,<M2,d-4>'
p273
aS'C,0.500,<m3,m-3>'
p274
aS'C,1.000,<m2,P-4>'
p275
aS'S,0.000,<M6,A2>'
p276
aS'S,0.333,<AA-11,A-15>'
p277
aS'C,0.000,<dd12,d8>'
p278
aS'X,0.333,<M-10,m-14>'
p279
aS'S,0.500,<P12,A8>'
p280
aS'S,0.250,<P15,A11>'
p281
aS'C,0.000,<P15,A11>'
p282
aS'S,0.500,<d9,d5>'
p283
aS'C,0.000,<m27,M23>'
p284
aS'X,0.500,<A-4,P-8>'
p285
aS'A,0.000,<dd5,d1>'
p286
aS'A,0.250,<M-7,P-11>'
p287
aS'X,0.500,<d10,m6>'
p288
aS'X,0.000,<A-8,P-12>'
p289
aS'S,0.000,<d1,P-5>'
p290
aS'A,2.750,<m2,P-4>'
p291
aS'X,4.000,<m13,M9>'
p292
aS'X,1.000,<d4,M-2>'
p293
aS'X,0.250,<P32,M28>'
p294
aS'C,0.000,<M2,d-4>'
p295
aS'X,0.000,<d2,A-4>'
p296
aS'C,0.500,<P-12,m-16>'
p297
aS'S,0.000,<A8,AA4>'
p298
aS'S,1.000,<P-12,m-16>'
p299
aS'A,1.000,<m10,M6>'
p300
aS'X,0.250,<AA-4,A-8>'
p301
aS'A,0.000,<A12,AA8>'
p302
aS'C,0.000,<d5,P1>'
p303
aS'C,0.000,<M-9,m-13>'
p304
aS'C,0.000,<M21,A17>'
p305
aS'S,0.250,<d3,M-3>'
p306
aS'S,0.000,<P18,M14>'
p307
aS'S,0.000,<M13,A9>'
p308
aS'C,0.500,<d-5,d-9>'
p309
aS'S,0.000,<A11,A7>'
p310
aS'X,0.000,<A-12,M-16>'
p311
aS'X,0.000,<AA-4,A-8>'
p312
aS'X,0.667,<m-13,d-17>'
p313
aS'A,0.250,<m13,M9>'
p314
aS'S,0.000,<P4,m-2>'
p315
aS'X,0.500,<A-13,M-17>'
p316
aS'C,0.250,<d13,m9>'
p317
aS'X,0.667,<A-10,M-14>'
p318
aS'C,0.250,<m9,P5>'
p319
aS'A,0.500,<M-2,m-6>'
p320
aS'S,0.000,<A-5,M-9>'
p321
aS'X,2.000,<m6,M2>'
p322
aS'X,1.000,<d2,A-4>'
p323
aS'X,0.000,<M13,A9>'
p324
aS'X,0.250,<M3,d-3>'
p325
aS'X,0.250,<m14,M10>'
p326
aS'C,0.000,<d-8,dd-12>'
p327
aS'S,0.667,<M-20,m-24>'
p328
aS'X,0.000,<d-4,dd-8>'
p329
aS'C,0.000,<d19,P15>'
p330
aS'X,1.000,<A-8,P-12>'
p331
aS'X,0.000,<M-13,m-17>'
p332
aS'X,0.250,<m2,P-4>'
p333
aS'S,0.000,<M16,A12>'
p334
aS'S,0.500,<P-12,m-16>'
p335
aS'X,0.500,<A4,d-2>'
p336
aS'S,0.500,<m10,M6>'
p337
aS'X,1.000,<M-2,m-6>'
p338
aS'A,0.500,<m7,M3>'
p339
aS'C,0.250,<P18,M14>'
p340
aS'X,0.250,<d12,P8>'
p341
aS'C,0.000,<P25,M21>'
p342
aS'C,0.500,<m20,M16>'
p343
aS'X,2.000,<m14,M10>'
p344
aS'C,0.500,<d20,m16>'
p345
aS'A,0.250,<m3,m-3>'
p346
aS'A,1.000,<A1,dd-5>'
p347
aS'S,0.250,<m2,P-4>'
p348
aS'S,0.250,<m13,M9>'
p349
aS'X,0.000,<m17,M13>'
p350
aS'X,2.000,<M-3,m-7>'
p351
aS'A,0.250,<m-17,d-21>'
p352
aS'S,0.000,<P26,A22>'
p353
aS'X,0.333,<AA-11,A-15>'
p354
aS'C,0.250,<P-15,d-19>'
p355
aS'S,0.750,<m2,P-4>'
p356
aS'S,0.000,<M-17,m-21>'
p357
aS'A,0.500,<M-6,m-10>'
p358
aS'X,0.500,<d-8,dd-12>'
p359
aS'C,0.667,<M-3,m-7>'
p360
aS'X,0.500,<M-13,m-17>'
p361
aS'A,0.250,<d5,P1>'
p362
aS'X,0.000,<m-6,d-10>'
p363
aS'C,0.000,<P4,m-2>'
p364
aS'X,0.000,<m9,P5>'
p365
aS'S,0.000,<m16,P12>'
p366
aS'X,1.000,<A11,A7>'
p367
aS'S,0.000,<d2,A-4>'
p368
aS'S,0.000,<M-13,m-17>'
p369
aS'X,0.000,<d18,m14>'
p370
aS'S,0.000,<M10,A6>'
p371
aS'S,0.500,<dd12,d8>'
p372
aS'S,0.500,<P11,M7>'
p373
aS'C,0.000,<A25,A21>'
p374
aS'S,0.333,<A-6,M-10>'
p375
aS'A,0.500,<P-18,d-22>'
p376
aS'C,0.250,<d6,m2>'
p377
aS'C,0.250,<M-13,m-17>'
p378
aS'C,1.500,<M-10,m-14>'
p379
aS'X,0.500,<d8,P4>'
p380
aS'X,3.000,<d13,m9>'
p381
aS'X,0.500,<m6,M2>'
p382
aS'C,0.000,<d2,A-4>'
p383
aS'X,0.333,<P8,A4>'
p384
aS'X,0.000,<m20,M16>'
p385
aS'X,0.000,<dd5,d1>'
p386
aS'X,0.500,<m-17,d-21>'
p387
aS'C,0.250,<A-15,P-19>'
p388
aS'S,0.000,<m27,M23>'
p389
aS'X,1.000,<P-12,m-16>'
p390
aS'S,0.500,<P22,A18>'
p391
aS'C,0.000,<P-5,m-9>'
p392
aS'S,0.000,<P25,M21>'
p393
aS'S,0.250,<m10,M6>'
p394
aS'X,1.000,<M-9,m-13>'
p395
aS'S,0.500,<m7,M3>'
p396
aS'C,0.500,<m2,P-4>'
p397
aS'X,0.250,<m24,M20>'
p398
aS'C,0.000,<M-21,P-25>'
p399
aS'C,2.000,<m9,P5>'
p400
aS'S,0.500,<d10,m6>'
p401
aS'S,0.000,<P12,A8>'
p402
aS'S,0.500,<d18,m14>'
p403
aS'X,0.000,<M2,d-4>'
p404
aS'A,0.000,<M-6,m-10>'
p405
aS'S,0.333,<m-3,d-7>'
p406
aS'S,0.000,<P-15,d-19>'
p407
aS'A,1.000,<d12,P8>'
p408
aS'C,0.500,<d1,P-5>'
p409
aS'X,0.333,<M-9,m-13>'
p410
aS'S,0.000,<d-29,dd-33>'
p411
aS'C,2.500,<m2,P-4>'
p412
aS'C,0.000,<m23,P19>'
p413
aS'C,0.250,<M9,A5>'
p414
aS'C,0.000,<m2,P-4>'
p415
aS'C,1.000,<m10,M6>'
p416
aS'C,0.000,<P12,A8>'
p417
aS'C,0.500,<d7,m3>'
p418
aS'C,0.250,<A1,dd-5>'
p419
aS'S,1.500,<d3,M-3>'
p420
aS'A,0.250,<d22,P18>'
p421
aS'S,0.250,<M17,A13>'
p422
aS'X,1.000,<A-5,M-9>'
p423
aS'X,0.333,<d-15,dd-19>'
p424
aS'C,0.000,<P-15,d-19>'
p425
aS'A,2.000,<m20,M16>'
p426
aS'S,0.250,<A-11,P-15>'
p427
aS'S,3.333,<M-16,m-20>'
p428
aS'X,0.000,<P-5,m-9>'
p429
aS'C,0.000,<m24,M20>'
p430
aS'X,0.250,<M-7,P-11>'
p431
aS'A,2.500,<M-17,m-21>'
p432
aS'X,0.333,<AA-8,A-12>'
p433
aS'S,0.000,<d-8,dd-12>'
p434
aS'X,0.000,<P1,d-5>'
p435
aS'X,0.000,<A1,dd-5>'
p436
aS'A,0.000,<P4,m-2>'
p437
aS'X,0.500,<m3,m-3>'
p438
aS'X,0.500,<M-16,m-20>'
p439
aS'C,0.000,<M-2,m-6>'
p440
aS'C,0.500,<P-4,d-8>'
p441
aS'S,4.500,<d4,M-2>'
p442
aS'S,0.500,<d8,P4>'
p443
aS'X,0.000,<M-7,P-11>'
p444
aS'S,2.000,<m16,P12>'
p445
aS'X,0.500,<P-18,d-22>'
p446
aS'S,3.000,<M-16,m-20>'
p447
aS'S,0.000,<M-9,m-13>'
p448
aS'C,0.000,<M-23,m-27>'
p449
aS'X,1.000,<m-7,d-11>'
p450
aS'S,0.333,<d13,m9>'
p451
aS'X,0.000,<m24,M20>'
p452
aS'A,0.500,<m13,M9>'
p453
aS'S,0.500,<A-2,M-6>'
p454
aS'X,0.750,<m10,M6>'
p455
aS'A,0.000,<A4,d-2>'
p456
aS'A,0.000,<d8,P4>'
p457
aS'A,0.000,<m3,m-3>'
p458
aS'X,0.333,<m7,M3>'
p459
aS'X,0.000,<m3,m-3>'
p460
aS'X,2.000,<m13,M9>'
p461
aS'X,0.333,<m-16,d-20>'
p462
aS'C,0.500,<d11,m7>'
p463
aS'X,0.333,<A4,d-2>'
p464
aS'X,1.000,<A4,d-2>'
p465
aS'X,0.250,<P18,M14>'
p466
aS'X,0.250,<m-7,d-11>'
p467
aS'S,0.500,<d7,m3>'
p468
aS'A,0.000,<M-16,m-20>'
p469
aS'X,0.250,<m13,M9>'
p470
aS'C,0.000,<A-22,P-26>'
p471
aS'S,0.000,<P-11,d-15>'
p472
aS'S,3.000,<P4,m-2>'
p473
aS'S,0.000,<A-21,A-25>'
p474
aS'X,0.500,<M-3,m-7>'
p475
aS'X,0.500,<m10,M6>'
p476
aS'S,0.500,<M-6,m-10>'
p477
aS'S,0.000,<A22,AA18>'
p478
aS'X,2.500,<d1,P-5>'
p479
aS'C,0.000,<A8,AA4>'
p480
aS'S,0.000,<P-5,m-9>'
p481
aS'X,0.000,<m2,P-4>'
p482
aS'X,1.000,<M-27,m-31>'
p483
aS'X,1.000,<dd5,d1>'
p484
aS'X,0.000,<dd12,d8>'
p485
aS'S,0.500,<d13,m9>'
p486
aS'A,0.250,<m28,M24>'
p487
aS'C,0.250,<A19,AA15>'
p488
aS'S,0.000,<m-3,d-7>'
p489
aS'C,0.000,<m-2,d-6>'
p490
aS'X,0.250,<P-4,d-8>'
p491
aS'S,0.000,<P15,A11>'
p492
aS'S,0.000,<d19,P15>'
p493
aS'X,0.333,<M-16,m-20>'
p494
aS'A,0.000,<P18,M14>'
p495
aS'X,0.500,<A-7,A-11>'
p496
aS'X,0.500,<M-2,m-6>'
p497
aS'X,0.500,<M3,d-3>'
p498
aS'C,0.000,<m20,M16>'
p499
aS'S,0.250,<M3,d-3>'
p500
aS'X,0.000,<P-12,m-16>'
p501
aS'A,1.000,<M-28,P-32>'
p502
aS'S,0.333,<m2,P-4>'
p503
aS'X,0.000,<m27,M23>'
p504
aS'C,0.250,<P4,m-2>'
p505
aS'C,0.000,<M13,A9>'
p506
aS'A,0.500,<P1,d-5>'
p507
aS'S,0.000,<m24,M20>'
p508
aS'C,0.500,<M-7,P-11>'
p509
aS'X,0.500,<P-4,d-8>'
p510
aS'C,0.250,<m7,M3>'
p511
aS'C,0.000,<M-3,m-7>'
p512
aS'A,0.333,<M-3,m-7>'
p513
aS'X,0.667,<A-12,M-16>'
p514
aS'C,0.250,<m17,M13>'
p515
aS'A,0.000,<m13,M9>'
p516
aS'C,0.500,<d5,P1>'
p517
aS'S,0.250,<P5,A1>'
p518
aS'A,0.250,<A-12,M-16>'
p519
aS'X,1.000,<P-5,m-9>'
p520
aS'S,0.667,<m6,M2>'
p521
aS'X,0.500,<m7,M3>'
p522
aS'X,1.000,<dd8,d4>'
p523
aS'S,0.000,<d12,P8>'
p524
aS'S,0.333,<M-13,m-17>'
p525
aS'C,3.000,<d3,M-3>'
p526
aS'S,0.000,<P19,A15>'
p527
aS'S,0.250,<M-6,m-10>'
p528
aS'S,0.333,<P4,m-2>'
p529
aS'S,0.000,<M-16,m-20>'
p530
aS'X,0.000,<P4,m-2>'
p531
aS'S,0.000,<d14,m10>'
p532
aS'C,0.250,<m2,P-4>'
p533
aS'S,0.000,<A-4,P-8>'
p534
aS'A,0.500,<M6,A2>'
p535
aS'X,0.500,<A-8,P-12>'
p536
aS'S,0.000,<d3,M-3>'
p537
aS'S,0.000,<d4,M-2>'
p538
aS'A,0.250,<M-9,m-13>'
p539
aS'X,0.000,<P15,A11>'
p540
aS'X,0.250,<d-8,dd-12>'
p541
aS'C,0.500,<A11,A7>'
p542
aS'X,0.000,<A-7,A-11>'
p543
aS'S,0.500,<M-14,P-18>'
p544
aS'S,0.250,<m24,M20>'
p545
aS'X,0.000,<M6,A2>'
p546
aS'C,0.500,<M6,A2>'
p547
aS'S,0.000,<d17,m13>'
p548
aS'C,0.250,<d1,P-5>'
p549
aS'C,0.000,<A18,A14>'
p550
aS'S,0.250,<d12,P8>'
p551
aS'C,0.667,<A-8,P-12>'
p552
aS'S,1.000,<P4,m-2>'
p553
aS'A,0.250,<P4,m-2>'
p554
aS'X,0.000,<M14,A10>'
p555
aS'X,0.333,<M3,d-3>'
p556
aS'A,1.000,<P-8,d-12>'
p557
aS'X,1.000,<d9,d5>'
p558
aS'X,1.000,<m7,M3>'
p559
aS'S,0.500,<m14,M10>'
p560
aS'X,0.000,<A-6,M-10>'
p561
aS'S,0.000,<A-15,P-19>'
p562
aS'S,0.250,<A-10,M-14>'
p563
aS'S,0.333,<P11,M7>'
p564
aS'A,0.000,<P5,A1>'
p565
aS'S,0.500,<M-7,P-11>'
p566
aS'X,0.000,<P-8,d-12>'
p567
aS'S,0.000,<M-2,m-6>'
p568
aS'C,0.000,<P5,A1>'
p569
aS'X,1.000,<AA-11,A-15>'
p570
aS'X,0.000,<P22,A18>'
p571
aS'X,0.000'
p572
aS'C,0.000,<M-13,m-17>'
p573
aS'X,1.000,<M-6,m-10>'
p574
aS'C,1.000,<A-2,M-6>'
p575
aS'S,0.000,<P1,d-5>'
p576
aS'A,0.500,<d19,P15>'
p577
aS'X,0.250,<d13,m9>'
p578
aS'C,0.250,<P12,A8>'
p579
aS'C,0.000,<A-25,P-29>'
p580
aS'X,0.250,<P5,A1>'
p581
aS'S,0.250,<m16,P12>'
p582
aS'C,0.500,<d4,M-2>'
p583
aS'S,0.250,<m14,M10>'
p584
aS'A,2.000,<d3,M-3>'
p585
aS'X,0.250,<A11,A7>'
p586
aS'C,0.500,<M-2,m-6>'
p587
aS'S,0.000,<M-3,m-7>'
p588
aS'X,1.000,<m10,M6>'
p589
aS'S,0.000,<dd26,d22>'
p590
aS'C,0.000,<M-6,m-10>'
p591
aS'S,0.250,<P11,M7>'
p592
aS'A,0.250,<m6,M2>'
p593
aS'S,0.500,<d2,A-4>'
p594
aS'A,6.000,<m-7,d-11>'
p595
aS'C,0.000,<m14,M10>'
p596
aS'X,0.333,<m10,M6>'
p597
aS'S,0.333,<A-7,A-11>'
p598
aS'C,0.000,<A-19,M-23>'
p599
aS'X,0.500,<m-7,d-11>'
p600
aS'S,1.000,<d4,M-2>'
p601
aS'C,0.000,<A-18,P-22>'
p602
aS'X,1.000,<m2,P-4>'
p603
aS'A,0.250,<d10,m6>'
p604
aS'S,0.500,<m2,P-4>'
p605
aS'X,0.250,<A-6,M-10>'
p606
aS'S,0.667,<A-21,A-25>'
p607
aS'X,0.000,<A8,AA4>'
p608
aS'A,0.000,<d11,m7>'
p609
aS'S,2.000,<m-2,d-6>'
p610
aS'C,0.250,<m20,M16>'
p611
aS'X,0.500,<A-11,P-15>'
p612
aS'X,0.000,<A-5,M-9>'
p613
aS'X,2.000,<m-3,d-7>'
p614
aS'C,0.000,<m10,M6>'
p615
aS'S,0.000,<dd12,d8>'
p616
aS'X,0.250,<P-19,m-23>'
p617
aS'X,0.000,<A4,d-2>'
p618
aS'X,0.000,<A-9,M-13>'
p619
aS'S,0.500,<M-10,m-14>'
p620
aS'A,0.000,<M13,A9>'
p621
aS'S,0.250,<A25,A21>'
p622
aS'X,0.000,<m10,M6>'
p623
aS'X,0.250,<M-6,m-10>'
p624
aS'C,1.000,<P4,m-2>'
p625
aS'X,0.333,<A-7,A-11>'
p626
aS'X,0.000,<P19,A15>'
p627
aS'X,0.250,<m17,M13>'
p628
aS'X,0.250,<P11,M7>'
p629
aS'X,1.000,<P4,m-2>'
p630
aS'X,0.333,<d-12,d-16>'
p631
aS'S,0.000,<P5,A1>'
p632
aS'S,0.333,<d9,d5>'
p633
aS'X,0.000,<M-16,m-20>'
p634
atp635
Rp636
.